
CNC.elf:     file format elf32-avr

Sections:
Idx Name          Size      VMA       LMA       File off  Algn
  0 .data         000004e8  00800100  00001c30  00001cc4  2**0
                  CONTENTS, ALLOC, LOAD, DATA
  1 .text         00001c30  00000000  00000000  00000094  2**1
                  CONTENTS, ALLOC, LOAD, READONLY, CODE
  2 .bss          0000001c  008005e8  008005e8  000021ac  2**0
                  ALLOC
  3 .stab         00000dec  00000000  00000000  000021ac  2**2
                  CONTENTS, READONLY, DEBUGGING
  4 .stabstr      000002dd  00000000  00000000  00002f98  2**0
                  CONTENTS, READONLY, DEBUGGING
  5 .comment      0000002f  00000000  00000000  00003275  2**0
                  CONTENTS, READONLY
  6 .debug_aranges 00000248  00000000  00000000  000032a4  2**0
                  CONTENTS, READONLY, DEBUGGING
  7 .debug_info   00002385  00000000  00000000  000034ec  2**0
                  CONTENTS, READONLY, DEBUGGING
  8 .debug_abbrev 000008f6  00000000  00000000  00005871  2**0
                  CONTENTS, READONLY, DEBUGGING
  9 .debug_line   00000fbc  00000000  00000000  00006167  2**0
                  CONTENTS, READONLY, DEBUGGING
 10 .debug_frame  000005d8  00000000  00000000  00007124  2**2
                  CONTENTS, READONLY, DEBUGGING
 11 .debug_str    000007c8  00000000  00000000  000076fc  2**0
                  CONTENTS, READONLY, DEBUGGING
 12 .debug_loc    00002197  00000000  00000000  00007ec4  2**0
                  CONTENTS, READONLY, DEBUGGING
 13 .debug_ranges 00000210  00000000  00000000  0000a05b  2**0
                  CONTENTS, READONLY, DEBUGGING

Disassembly of section .text:

00000000 <__vectors>:
       0:	0c 94 84 01 	jmp	0x308	; 0x308 <__ctors_end>
       4:	0c 94 be 06 	jmp	0xd7c	; 0xd7c <__vector_1>
       8:	0c 94 a1 01 	jmp	0x342	; 0x342 <__bad_interrupt>
       c:	0c 94 a1 01 	jmp	0x342	; 0x342 <__bad_interrupt>
      10:	0c 94 a1 01 	jmp	0x342	; 0x342 <__bad_interrupt>
      14:	0c 94 a1 01 	jmp	0x342	; 0x342 <__bad_interrupt>
      18:	0c 94 a1 01 	jmp	0x342	; 0x342 <__bad_interrupt>
      1c:	0c 94 a1 01 	jmp	0x342	; 0x342 <__bad_interrupt>
      20:	0c 94 a1 01 	jmp	0x342	; 0x342 <__bad_interrupt>
      24:	0c 94 a1 01 	jmp	0x342	; 0x342 <__bad_interrupt>
      28:	0c 94 57 0b 	jmp	0x16ae	; 0x16ae <__vector_10>
      2c:	0c 94 95 0b 	jmp	0x172a	; 0x172a <__vector_11>
      30:	0c 94 a1 01 	jmp	0x342	; 0x342 <__bad_interrupt>
      34:	0c 94 a1 01 	jmp	0x342	; 0x342 <__bad_interrupt>
      38:	0c 94 a1 01 	jmp	0x342	; 0x342 <__bad_interrupt>
      3c:	0c 94 a1 01 	jmp	0x342	; 0x342 <__bad_interrupt>
      40:	0c 94 a1 01 	jmp	0x342	; 0x342 <__bad_interrupt>
      44:	0c 94 8f 05 	jmp	0xb1e	; 0xb1e <__vector_17>
      48:	0c 94 a1 01 	jmp	0x342	; 0x342 <__bad_interrupt>
      4c:	0c 94 a1 01 	jmp	0x342	; 0x342 <__bad_interrupt>
      50:	0c 94 a1 01 	jmp	0x342	; 0x342 <__bad_interrupt>
      54:	0c 94 a1 01 	jmp	0x342	; 0x342 <__bad_interrupt>
      58:	0c 94 a1 01 	jmp	0x342	; 0x342 <__bad_interrupt>
      5c:	0c 94 a1 01 	jmp	0x342	; 0x342 <__bad_interrupt>
      60:	0c 94 a1 01 	jmp	0x342	; 0x342 <__bad_interrupt>
      64:	0c 94 a1 01 	jmp	0x342	; 0x342 <__bad_interrupt>
      68:	0c 94 a1 01 	jmp	0x342	; 0x342 <__bad_interrupt>
      6c:	0c 94 a1 01 	jmp	0x342	; 0x342 <__bad_interrupt>
      70:	0c 94 a1 01 	jmp	0x342	; 0x342 <__bad_interrupt>
      74:	0c 94 a1 01 	jmp	0x342	; 0x342 <__bad_interrupt>
      78:	0c 94 a1 01 	jmp	0x342	; 0x342 <__bad_interrupt>
      7c:	0c 94 a1 01 	jmp	0x342	; 0x342 <__bad_interrupt>
      80:	0c 94 a1 01 	jmp	0x342	; 0x342 <__bad_interrupt>
      84:	0c 94 a1 01 	jmp	0x342	; 0x342 <__bad_interrupt>
      88:	0c 94 a1 01 	jmp	0x342	; 0x342 <__bad_interrupt>
      8c:	0c 94 a1 01 	jmp	0x342	; 0x342 <__bad_interrupt>
      90:	0c 94 a1 01 	jmp	0x342	; 0x342 <__bad_interrupt>
      94:	0c 94 a1 01 	jmp	0x342	; 0x342 <__bad_interrupt>
      98:	0c 94 a1 01 	jmp	0x342	; 0x342 <__bad_interrupt>
      9c:	0c 94 a1 01 	jmp	0x342	; 0x342 <__bad_interrupt>
      a0:	0c 94 a1 01 	jmp	0x342	; 0x342 <__bad_interrupt>
      a4:	0c 94 a1 01 	jmp	0x342	; 0x342 <__bad_interrupt>
      a8:	0c 94 a1 01 	jmp	0x342	; 0x342 <__bad_interrupt>
      ac:	f6 02       	muls	r31, r22
      ae:	bf 03       	fmulsu	r19, r23
      b0:	bf 03       	fmulsu	r19, r23
      b2:	bf 03       	fmulsu	r19, r23
      b4:	bf 03       	fmulsu	r19, r23
      b6:	a9 03       	fmulsu	r18, r17
      b8:	bf 03       	fmulsu	r19, r23
      ba:	bf 03       	fmulsu	r19, r23
      bc:	bf 03       	fmulsu	r19, r23
      be:	bf 03       	fmulsu	r19, r23
      c0:	bf 03       	fmulsu	r19, r23
      c2:	bf 03       	fmulsu	r19, r23
      c4:	bf 03       	fmulsu	r19, r23
      c6:	bf 03       	fmulsu	r19, r23
      c8:	bf 03       	fmulsu	r19, r23
      ca:	bf 03       	fmulsu	r19, r23
      cc:	7b 03       	fmul	r23, r19
      ce:	bf 03       	fmulsu	r19, r23
      d0:	82 03       	fmuls	r16, r18
      d2:	bf 03       	fmulsu	r19, r23
      d4:	bf 03       	fmulsu	r19, r23
      d6:	bf 03       	fmulsu	r19, r23
      d8:	bf 03       	fmulsu	r19, r23
      da:	bf 03       	fmulsu	r19, r23
      dc:	bf 03       	fmulsu	r19, r23
      de:	bf 03       	fmulsu	r19, r23
      e0:	bf 03       	fmulsu	r19, r23
      e2:	bf 03       	fmulsu	r19, r23
      e4:	bf 03       	fmulsu	r19, r23
      e6:	bf 03       	fmulsu	r19, r23
      e8:	bf 03       	fmulsu	r19, r23
      ea:	bf 03       	fmulsu	r19, r23
      ec:	bf 03       	fmulsu	r19, r23
      ee:	bf 03       	fmulsu	r19, r23
      f0:	bf 03       	fmulsu	r19, r23
      f2:	bf 03       	fmulsu	r19, r23
      f4:	b6 03       	fmuls	r19, r22
      f6:	bf 03       	fmulsu	r19, r23
      f8:	bf 03       	fmulsu	r19, r23
      fa:	bf 03       	fmulsu	r19, r23
      fc:	bf 03       	fmulsu	r19, r23
      fe:	bf 03       	fmulsu	r19, r23
     100:	bf 03       	fmulsu	r19, r23
     102:	bf 03       	fmulsu	r19, r23
     104:	bf 03       	fmulsu	r19, r23
     106:	bf 03       	fmulsu	r19, r23
     108:	bf 03       	fmulsu	r19, r23
     10a:	bf 03       	fmulsu	r19, r23
     10c:	bf 03       	fmulsu	r19, r23
     10e:	bf 03       	fmulsu	r19, r23
     110:	bf 03       	fmulsu	r19, r23
     112:	bf 03       	fmulsu	r19, r23
     114:	bf 03       	fmulsu	r19, r23
     116:	bf 03       	fmulsu	r19, r23
     118:	bf 03       	fmulsu	r19, r23
     11a:	bf 03       	fmulsu	r19, r23
     11c:	bf 03       	fmulsu	r19, r23
     11e:	bf 03       	fmulsu	r19, r23
     120:	bf 03       	fmulsu	r19, r23
     122:	bf 03       	fmulsu	r19, r23
     124:	bf 03       	fmulsu	r19, r23
     126:	bf 03       	fmulsu	r19, r23
     128:	bf 03       	fmulsu	r19, r23
     12a:	bf 03       	fmulsu	r19, r23
     12c:	bf 03       	fmulsu	r19, r23
     12e:	bf 03       	fmulsu	r19, r23
     130:	bf 03       	fmulsu	r19, r23
     132:	bf 03       	fmulsu	r19, r23
     134:	bf 03       	fmulsu	r19, r23
     136:	bf 03       	fmulsu	r19, r23
     138:	3a 03       	fmul	r19, r18
     13a:	bf 03       	fmulsu	r19, r23
     13c:	bf 03       	fmulsu	r19, r23
     13e:	30 03       	mulsu	r19, r16
     140:	4e 03       	fmul	r20, r22
     142:	25 03       	mulsu	r18, r21
     144:	bf 03       	fmulsu	r19, r23
     146:	bf 03       	fmulsu	r19, r23
     148:	92 03       	fmuls	r17, r18
     14a:	bf 03       	fmulsu	r19, r23
     14c:	bf 03       	fmulsu	r19, r23
     14e:	bf 03       	fmulsu	r19, r23
     150:	bf 03       	fmulsu	r19, r23
     152:	bf 03       	fmulsu	r19, r23
     154:	59 03       	fmul	r21, r17
     156:	6a 03       	fmul	r22, r18
     158:	43 03       	mulsu	r20, r19
     15a:	1a 03       	fmul	r17, r18
     15c:	11 03       	mulsu	r17, r17
     15e:	99 03       	fmulsu	r17, r17
     160:	bf 03       	fmulsu	r19, r23
     162:	bf 03       	fmulsu	r19, r23
     164:	07 03       	mulsu	r16, r23
     166:	bf 03       	fmulsu	r19, r23
     168:	00 03       	mulsu	r16, r16
     16a:	89 03       	fmulsu	r16, r17
     16c:	bf 03       	fmulsu	r19, r23
     16e:	bf 03       	fmulsu	r19, r23
     170:	bf 03       	fmulsu	r19, r23
     172:	bf 03       	fmulsu	r19, r23
     174:	bf 03       	fmulsu	r19, r23
     176:	bf 03       	fmulsu	r19, r23
     178:	bf 03       	fmulsu	r19, r23
     17a:	bf 03       	fmulsu	r19, r23
     17c:	bf 03       	fmulsu	r19, r23
     17e:	bf 03       	fmulsu	r19, r23
     180:	bf 03       	fmulsu	r19, r23
     182:	bf 03       	fmulsu	r19, r23
     184:	bf 03       	fmulsu	r19, r23
     186:	bf 03       	fmulsu	r19, r23
     188:	bf 03       	fmulsu	r19, r23
     18a:	bf 03       	fmulsu	r19, r23
     18c:	bf 03       	fmulsu	r19, r23
     18e:	bf 03       	fmulsu	r19, r23
     190:	bf 03       	fmulsu	r19, r23
     192:	bf 03       	fmulsu	r19, r23
     194:	bf 03       	fmulsu	r19, r23
     196:	bf 03       	fmulsu	r19, r23
     198:	bf 03       	fmulsu	r19, r23
     19a:	bf 03       	fmulsu	r19, r23
     19c:	bf 03       	fmulsu	r19, r23
     19e:	bf 03       	fmulsu	r19, r23
     1a0:	bf 03       	fmulsu	r19, r23
     1a2:	bf 03       	fmulsu	r19, r23
     1a4:	bf 03       	fmulsu	r19, r23
     1a6:	bf 03       	fmulsu	r19, r23
     1a8:	bf 03       	fmulsu	r19, r23
     1aa:	bf 03       	fmulsu	r19, r23
     1ac:	bf 03       	fmulsu	r19, r23
     1ae:	bf 03       	fmulsu	r19, r23
     1b0:	bf 03       	fmulsu	r19, r23
     1b2:	bf 03       	fmulsu	r19, r23
     1b4:	bf 03       	fmulsu	r19, r23
     1b6:	bf 03       	fmulsu	r19, r23
     1b8:	bf 03       	fmulsu	r19, r23
     1ba:	bf 03       	fmulsu	r19, r23
     1bc:	bf 03       	fmulsu	r19, r23
     1be:	bf 03       	fmulsu	r19, r23
     1c0:	bf 03       	fmulsu	r19, r23
     1c2:	bf 03       	fmulsu	r19, r23
     1c4:	bf 03       	fmulsu	r19, r23
     1c6:	bf 03       	fmulsu	r19, r23
     1c8:	bf 03       	fmulsu	r19, r23
     1ca:	bf 03       	fmulsu	r19, r23
     1cc:	bf 03       	fmulsu	r19, r23
     1ce:	bf 03       	fmulsu	r19, r23
     1d0:	bf 03       	fmulsu	r19, r23
     1d2:	bf 03       	fmulsu	r19, r23
     1d4:	bf 03       	fmulsu	r19, r23
     1d6:	bf 03       	fmulsu	r19, r23
     1d8:	bf 03       	fmulsu	r19, r23
     1da:	bf 03       	fmulsu	r19, r23
     1dc:	bf 03       	fmulsu	r19, r23
     1de:	bf 03       	fmulsu	r19, r23
     1e0:	bf 03       	fmulsu	r19, r23
     1e2:	bf 03       	fmulsu	r19, r23
     1e4:	bf 03       	fmulsu	r19, r23
     1e6:	bf 03       	fmulsu	r19, r23
     1e8:	bf 03       	fmulsu	r19, r23
     1ea:	bf 03       	fmulsu	r19, r23
     1ec:	bf 03       	fmulsu	r19, r23
     1ee:	bf 03       	fmulsu	r19, r23
     1f0:	bf 03       	fmulsu	r19, r23
     1f2:	bf 03       	fmulsu	r19, r23
     1f4:	bf 03       	fmulsu	r19, r23
     1f6:	bf 03       	fmulsu	r19, r23
     1f8:	bf 03       	fmulsu	r19, r23
     1fa:	bf 03       	fmulsu	r19, r23
     1fc:	bf 03       	fmulsu	r19, r23
     1fe:	bf 03       	fmulsu	r19, r23
     200:	bf 03       	fmulsu	r19, r23
     202:	bf 03       	fmulsu	r19, r23
     204:	bf 03       	fmulsu	r19, r23
     206:	bf 03       	fmulsu	r19, r23
     208:	bf 03       	fmulsu	r19, r23
     20a:	bf 03       	fmulsu	r19, r23
     20c:	bf 03       	fmulsu	r19, r23
     20e:	bf 03       	fmulsu	r19, r23
     210:	bf 03       	fmulsu	r19, r23
     212:	bf 03       	fmulsu	r19, r23
     214:	bf 03       	fmulsu	r19, r23
     216:	bf 03       	fmulsu	r19, r23
     218:	bf 03       	fmulsu	r19, r23
     21a:	bf 03       	fmulsu	r19, r23
     21c:	bf 03       	fmulsu	r19, r23
     21e:	bf 03       	fmulsu	r19, r23
     220:	bf 03       	fmulsu	r19, r23
     222:	bf 03       	fmulsu	r19, r23
     224:	bf 03       	fmulsu	r19, r23
     226:	bf 03       	fmulsu	r19, r23
     228:	bf 03       	fmulsu	r19, r23
     22a:	bf 03       	fmulsu	r19, r23
     22c:	bf 03       	fmulsu	r19, r23
     22e:	bf 03       	fmulsu	r19, r23
     230:	bf 03       	fmulsu	r19, r23
     232:	bf 03       	fmulsu	r19, r23
     234:	b6 03       	fmuls	r19, r22

00000236 <descriptor_list>:
     236:	00 01 00 00 6a 02 12 00 02 00 00 7c 02 43 00 03     ....j......|.C..
     246:	00 00 bf 02 04 01 03 09 04 c3 02 14 02 03 09 04     ................
     256:	d9 02 1e 03 03 09 04 f9 02 0c                       ..........

00000260 <endpoint_config_table>:
     260:	00 01 c1 12 01 80 36 01 81 36                       ......6..6

0000026a <device_descriptor>:
     26a:	12 01 00 02 02 00 00 10 ad de fe af 00 01 01 02     ................
     27a:	03 01                                               ..

0000027c <config1_descriptor>:
     27c:	09 02 43 00 02 01 00 c0 32 09 04 00 00 01 02 02     ..C.....2.......
     28c:	01 00 05 24 00 10 01 05 24 01 01 01 04 24 02 06     ...$....$....$..
     29c:	05 24 06 00 01 07 05 82 03 10 00 40 09 04 01 00     .$.........@....
     2ac:	02 0a 00 00 00 07 05 03 02 40 00 00 07 05 84 02     .........@......
     2bc:	40 00 00                                            @..

000002bf <string0>:
     2bf:	04 03 09 04                                         ....

000002c3 <string1>:
     2c3:	14 03 63 00 6e 00 63 00 40 00 73 00 68 00 61 00     ..c.n.c.@.s.h.a.
     2d3:	63 00 6b 00 00 00                                   c.k...

000002d9 <string2>:
     2d9:	1e 03 55 00 53 00 42 00 20 00 53 00 65 00 72 00     ..U.S.B. .S.e.r.
     2e9:	69 00 61 00 6c 00 20 00 43 00 4e 00 43 00 00 00     i.a.l. .C.N.C...

000002f9 <string3>:
     2f9:	0c 03 30 00 30 00 38 00 31 00 35 00 00 00 00        ..0.0.8.1.5....

00000308 <__ctors_end>:
     308:	11 24       	eor	r1, r1
     30a:	1f be       	out	0x3f, r1	; 63
     30c:	cf ef       	ldi	r28, 0xFF	; 255
     30e:	da e0       	ldi	r29, 0x0A	; 10
     310:	de bf       	out	0x3e, r29	; 62
     312:	cd bf       	out	0x3d, r28	; 61

00000314 <__do_copy_data>:
     314:	15 e0       	ldi	r17, 0x05	; 5
     316:	a0 e0       	ldi	r26, 0x00	; 0
     318:	b1 e0       	ldi	r27, 0x01	; 1
     31a:	e0 e3       	ldi	r30, 0x30	; 48
     31c:	fc e1       	ldi	r31, 0x1C	; 28
     31e:	02 c0       	rjmp	.+4      	; 0x324 <__do_copy_data+0x10>
     320:	05 90       	lpm	r0, Z+
     322:	0d 92       	st	X+, r0
     324:	a8 3e       	cpi	r26, 0xE8	; 232
     326:	b1 07       	cpc	r27, r17
     328:	d9 f7       	brne	.-10     	; 0x320 <__do_copy_data+0xc>

0000032a <__do_clear_bss>:
     32a:	26 e0       	ldi	r18, 0x06	; 6
     32c:	a8 ee       	ldi	r26, 0xE8	; 232
     32e:	b5 e0       	ldi	r27, 0x05	; 5
     330:	01 c0       	rjmp	.+2      	; 0x334 <.do_clear_bss_start>

00000332 <.do_clear_bss_loop>:
     332:	1d 92       	st	X+, r1

00000334 <.do_clear_bss_start>:
     334:	a4 30       	cpi	r26, 0x04	; 4
     336:	b2 07       	cpc	r27, r18
     338:	e1 f7       	brne	.-8      	; 0x332 <.do_clear_bss_loop>
     33a:	0e 94 db 05 	call	0xbb6	; 0xbb6 <main>
     33e:	0c 94 16 0e 	jmp	0x1c2c	; 0x1c2c <_exit>

00000342 <__bad_interrupt>:
     342:	0c 94 00 00 	jmp	0	; 0x0 <__vectors>

00000346 <readADC>:
//===============================acd.c==============================================
#include "adc.h"

uint16_t readADC( uint8_t adc_channel)
{
     346:	cf 93       	push	r28
     348:	df 93       	push	r29
	uint32_t adc_Value = 0;
	
	// ADC deactivate
	ADCSRA &= ~(1<<ADEN);
     34a:	ea e7       	ldi	r30, 0x7A	; 122
     34c:	f0 e0       	ldi	r31, 0x00	; 0
     34e:	90 81       	ld	r25, Z
     350:	9f 77       	andi	r25, 0x7F	; 127
     352:	90 83       	st	Z, r25
	ADCSRA &= ~(1<<ADSC);
     354:	90 81       	ld	r25, Z
     356:	9f 7b       	andi	r25, 0xBF	; 191
     358:	90 83       	st	Z, r25

	switch (adc_channel) //choose adc channel
     35a:	88 30       	cpi	r24, 0x08	; 8
     35c:	09 f4       	brne	.+2      	; 0x360 <readADC+0x1a>
     35e:	75 c0       	rjmp	.+234    	; 0x44a <readADC+0x104>
     360:	78 f4       	brcc	.+30     	; 0x380 <readADC+0x3a>
     362:	84 30       	cpi	r24, 0x04	; 4
     364:	d1 f1       	breq	.+116    	; 0x3da <readADC+0x94>
     366:	30 f4       	brcc	.+12     	; 0x374 <readADC+0x2e>
     368:	88 23       	and	r24, r24
     36a:	f1 f0       	breq	.+60     	; 0x3a8 <readADC+0x62>
     36c:	81 30       	cpi	r24, 0x01	; 1
     36e:	09 f0       	breq	.+2      	; 0x372 <readADC+0x2c>
     370:	f9 c0       	rjmp	.+498    	; 0x564 <readADC+0x21e>
     372:	25 c0       	rjmp	.+74     	; 0x3be <readADC+0x78>
     374:	86 30       	cpi	r24, 0x06	; 6
     376:	09 f4       	brne	.+2      	; 0x37a <readADC+0x34>
     378:	4c c0       	rjmp	.+152    	; 0x412 <readADC+0xcc>
     37a:	08 f0       	brcs	.+2      	; 0x37e <readADC+0x38>
     37c:	58 c0       	rjmp	.+176    	; 0x42e <readADC+0xe8>
     37e:	3b c0       	rjmp	.+118    	; 0x3f6 <readADC+0xb0>
     380:	8b 30       	cpi	r24, 0x0B	; 11
     382:	09 f4       	brne	.+2      	; 0x386 <readADC+0x40>
     384:	89 c0       	rjmp	.+274    	; 0x498 <readADC+0x152>
     386:	38 f4       	brcc	.+14     	; 0x396 <readADC+0x50>
     388:	89 30       	cpi	r24, 0x09	; 9
     38a:	09 f4       	brne	.+2      	; 0x38e <readADC+0x48>
     38c:	69 c0       	rjmp	.+210    	; 0x460 <readADC+0x11a>
     38e:	8a 30       	cpi	r24, 0x0A	; 10
     390:	09 f0       	breq	.+2      	; 0x394 <readADC+0x4e>
     392:	e8 c0       	rjmp	.+464    	; 0x564 <readADC+0x21e>
     394:	73 c0       	rjmp	.+230    	; 0x47c <readADC+0x136>
     396:	8d 30       	cpi	r24, 0x0D	; 13
     398:	09 f4       	brne	.+2      	; 0x39c <readADC+0x56>
     39a:	9a c0       	rjmp	.+308    	; 0x4d0 <readADC+0x18a>
     39c:	08 f4       	brcc	.+2      	; 0x3a0 <readADC+0x5a>
     39e:	8a c0       	rjmp	.+276    	; 0x4b4 <readADC+0x16e>
     3a0:	84 31       	cpi	r24, 0x14	; 20
     3a2:	09 f0       	breq	.+2      	; 0x3a6 <readADC+0x60>
     3a4:	df c0       	rjmp	.+446    	; 0x564 <readADC+0x21e>
     3a6:	a2 c0       	rjmp	.+324    	; 0x4ec <readADC+0x1a6>
	{
		case 0:  adc_ch0; break;
     3a8:	ec e7       	ldi	r30, 0x7C	; 124
     3aa:	f0 e0       	ldi	r31, 0x00	; 0
     3ac:	80 81       	ld	r24, Z
     3ae:	80 7e       	andi	r24, 0xE0	; 224
     3b0:	80 83       	st	Z, r24
     3b2:	eb e7       	ldi	r30, 0x7B	; 123
     3b4:	f0 e0       	ldi	r31, 0x00	; 0
     3b6:	80 81       	ld	r24, Z
     3b8:	8f 7d       	andi	r24, 0xDF	; 223
     3ba:	80 83       	st	Z, r24
     3bc:	a4 c0       	rjmp	.+328    	; 0x506 <readADC+0x1c0>
		case 1:  adc_ch1; break;
     3be:	ec e7       	ldi	r30, 0x7C	; 124
     3c0:	f0 e0       	ldi	r31, 0x00	; 0
     3c2:	80 81       	ld	r24, Z
     3c4:	81 7e       	andi	r24, 0xE1	; 225
     3c6:	80 83       	st	Z, r24
     3c8:	80 81       	ld	r24, Z
     3ca:	81 60       	ori	r24, 0x01	; 1
     3cc:	80 83       	st	Z, r24
     3ce:	eb e7       	ldi	r30, 0x7B	; 123
     3d0:	f0 e0       	ldi	r31, 0x00	; 0
     3d2:	80 81       	ld	r24, Z
     3d4:	8f 7d       	andi	r24, 0xDF	; 223
     3d6:	80 83       	st	Z, r24
     3d8:	96 c0       	rjmp	.+300    	; 0x506 <readADC+0x1c0>
		case 4:  adc_ch4; break;
     3da:	ec e7       	ldi	r30, 0x7C	; 124
     3dc:	f0 e0       	ldi	r31, 0x00	; 0
     3de:	80 81       	ld	r24, Z
     3e0:	84 7e       	andi	r24, 0xE4	; 228
     3e2:	80 83       	st	Z, r24
     3e4:	80 81       	ld	r24, Z
     3e6:	84 60       	ori	r24, 0x04	; 4
     3e8:	80 83       	st	Z, r24
     3ea:	eb e7       	ldi	r30, 0x7B	; 123
     3ec:	f0 e0       	ldi	r31, 0x00	; 0
     3ee:	80 81       	ld	r24, Z
     3f0:	8f 7d       	andi	r24, 0xDF	; 223
     3f2:	80 83       	st	Z, r24
     3f4:	88 c0       	rjmp	.+272    	; 0x506 <readADC+0x1c0>
		case 5:  adc_ch5; break;
     3f6:	ec e7       	ldi	r30, 0x7C	; 124
     3f8:	f0 e0       	ldi	r31, 0x00	; 0
     3fa:	80 81       	ld	r24, Z
     3fc:	85 60       	ori	r24, 0x05	; 5
     3fe:	80 83       	st	Z, r24
     400:	80 81       	ld	r24, Z
     402:	85 7e       	andi	r24, 0xE5	; 229
     404:	80 83       	st	Z, r24
     406:	eb e7       	ldi	r30, 0x7B	; 123
     408:	f0 e0       	ldi	r31, 0x00	; 0
     40a:	80 81       	ld	r24, Z
     40c:	8f 7d       	andi	r24, 0xDF	; 223
     40e:	80 83       	st	Z, r24
     410:	7a c0       	rjmp	.+244    	; 0x506 <readADC+0x1c0>
		case 6:  adc_ch6; break;
     412:	ec e7       	ldi	r30, 0x7C	; 124
     414:	f0 e0       	ldi	r31, 0x00	; 0
     416:	80 81       	ld	r24, Z
     418:	86 60       	ori	r24, 0x06	; 6
     41a:	80 83       	st	Z, r24
     41c:	80 81       	ld	r24, Z
     41e:	86 7e       	andi	r24, 0xE6	; 230
     420:	80 83       	st	Z, r24
     422:	eb e7       	ldi	r30, 0x7B	; 123
     424:	f0 e0       	ldi	r31, 0x00	; 0
     426:	80 81       	ld	r24, Z
     428:	8f 7d       	andi	r24, 0xDF	; 223
     42a:	80 83       	st	Z, r24
     42c:	6c c0       	rjmp	.+216    	; 0x506 <readADC+0x1c0>
		case 7:  adc_ch7; break;
     42e:	ec e7       	ldi	r30, 0x7C	; 124
     430:	f0 e0       	ldi	r31, 0x00	; 0
     432:	80 81       	ld	r24, Z
     434:	87 60       	ori	r24, 0x07	; 7
     436:	80 83       	st	Z, r24
     438:	80 81       	ld	r24, Z
     43a:	87 7e       	andi	r24, 0xE7	; 231
     43c:	80 83       	st	Z, r24
     43e:	eb e7       	ldi	r30, 0x7B	; 123
     440:	f0 e0       	ldi	r31, 0x00	; 0
     442:	80 81       	ld	r24, Z
     444:	8f 7d       	andi	r24, 0xDF	; 223
     446:	80 83       	st	Z, r24
     448:	5e c0       	rjmp	.+188    	; 0x506 <readADC+0x1c0>
		case 8:  adc_ch8; break;
     44a:	ec e7       	ldi	r30, 0x7C	; 124
     44c:	f0 e0       	ldi	r31, 0x00	; 0
     44e:	80 81       	ld	r24, Z
     450:	80 7e       	andi	r24, 0xE0	; 224
     452:	80 83       	st	Z, r24
     454:	eb e7       	ldi	r30, 0x7B	; 123
     456:	f0 e0       	ldi	r31, 0x00	; 0
     458:	80 81       	ld	r24, Z
     45a:	80 62       	ori	r24, 0x20	; 32
     45c:	80 83       	st	Z, r24
     45e:	53 c0       	rjmp	.+166    	; 0x506 <readADC+0x1c0>
		case 9:  adc_ch9; break;
     460:	ec e7       	ldi	r30, 0x7C	; 124
     462:	f0 e0       	ldi	r31, 0x00	; 0
     464:	80 81       	ld	r24, Z
     466:	81 7e       	andi	r24, 0xE1	; 225
     468:	80 83       	st	Z, r24
     46a:	80 81       	ld	r24, Z
     46c:	81 60       	ori	r24, 0x01	; 1
     46e:	80 83       	st	Z, r24
     470:	eb e7       	ldi	r30, 0x7B	; 123
     472:	f0 e0       	ldi	r31, 0x00	; 0
     474:	80 81       	ld	r24, Z
     476:	80 62       	ori	r24, 0x20	; 32
     478:	80 83       	st	Z, r24
     47a:	45 c0       	rjmp	.+138    	; 0x506 <readADC+0x1c0>
		case 10:  adc_ch10; break;
     47c:	ec e7       	ldi	r30, 0x7C	; 124
     47e:	f0 e0       	ldi	r31, 0x00	; 0
     480:	80 81       	ld	r24, Z
     482:	82 7e       	andi	r24, 0xE2	; 226
     484:	80 83       	st	Z, r24
     486:	80 81       	ld	r24, Z
     488:	82 60       	ori	r24, 0x02	; 2
     48a:	80 83       	st	Z, r24
     48c:	eb e7       	ldi	r30, 0x7B	; 123
     48e:	f0 e0       	ldi	r31, 0x00	; 0
     490:	80 81       	ld	r24, Z
     492:	80 62       	ori	r24, 0x20	; 32
     494:	80 83       	st	Z, r24
     496:	37 c0       	rjmp	.+110    	; 0x506 <readADC+0x1c0>
		case 11:  adc_ch11; break;
     498:	ec e7       	ldi	r30, 0x7C	; 124
     49a:	f0 e0       	ldi	r31, 0x00	; 0
     49c:	80 81       	ld	r24, Z
     49e:	83 7e       	andi	r24, 0xE3	; 227
     4a0:	80 83       	st	Z, r24
     4a2:	80 81       	ld	r24, Z
     4a4:	83 60       	ori	r24, 0x03	; 3
     4a6:	80 83       	st	Z, r24
     4a8:	eb e7       	ldi	r30, 0x7B	; 123
     4aa:	f0 e0       	ldi	r31, 0x00	; 0
     4ac:	80 81       	ld	r24, Z
     4ae:	80 62       	ori	r24, 0x20	; 32
     4b0:	80 83       	st	Z, r24
     4b2:	29 c0       	rjmp	.+82     	; 0x506 <readADC+0x1c0>
		case 12:  adc_ch12; break;
     4b4:	ec e7       	ldi	r30, 0x7C	; 124
     4b6:	f0 e0       	ldi	r31, 0x00	; 0
     4b8:	80 81       	ld	r24, Z
     4ba:	84 7e       	andi	r24, 0xE4	; 228
     4bc:	80 83       	st	Z, r24
     4be:	80 81       	ld	r24, Z
     4c0:	84 60       	ori	r24, 0x04	; 4
     4c2:	80 83       	st	Z, r24
     4c4:	eb e7       	ldi	r30, 0x7B	; 123
     4c6:	f0 e0       	ldi	r31, 0x00	; 0
     4c8:	80 81       	ld	r24, Z
     4ca:	80 62       	ori	r24, 0x20	; 32
     4cc:	80 83       	st	Z, r24
     4ce:	1b c0       	rjmp	.+54     	; 0x506 <readADC+0x1c0>
		case 13:  adc_ch13; break;
     4d0:	ec e7       	ldi	r30, 0x7C	; 124
     4d2:	f0 e0       	ldi	r31, 0x00	; 0
     4d4:	80 81       	ld	r24, Z
     4d6:	85 7e       	andi	r24, 0xE5	; 229
     4d8:	80 83       	st	Z, r24
     4da:	80 81       	ld	r24, Z
     4dc:	85 60       	ori	r24, 0x05	; 5
     4de:	80 83       	st	Z, r24
     4e0:	eb e7       	ldi	r30, 0x7B	; 123
     4e2:	f0 e0       	ldi	r31, 0x00	; 0
     4e4:	80 81       	ld	r24, Z
     4e6:	80 62       	ori	r24, 0x20	; 32
     4e8:	80 83       	st	Z, r24
     4ea:	0d c0       	rjmp	.+26     	; 0x506 <readADC+0x1c0>
		case 20: adc_temp; break;
     4ec:	ec e7       	ldi	r30, 0x7C	; 124
     4ee:	f0 e0       	ldi	r31, 0x00	; 0
     4f0:	80 81       	ld	r24, Z
     4f2:	87 7e       	andi	r24, 0xE7	; 231
     4f4:	80 83       	st	Z, r24
     4f6:	80 81       	ld	r24, Z
     4f8:	87 60       	ori	r24, 0x07	; 7
     4fa:	80 83       	st	Z, r24
     4fc:	eb e7       	ldi	r30, 0x7B	; 123
     4fe:	f0 e0       	ldi	r31, 0x00	; 0
     500:	80 81       	ld	r24, Z
     502:	80 62       	ori	r24, 0x20	; 32
     504:	80 83       	st	Z, r24
		default:  {return (0);}	//error
	}

	ADCSRA |= (1<<ADEN); // ADC on
     506:	ea e7       	ldi	r30, 0x7A	; 122
     508:	f0 e0       	ldi	r31, 0x00	; 0
     50a:	80 81       	ld	r24, Z
     50c:	80 68       	ori	r24, 0x80	; 128
     50e:	80 83       	st	Z, r24
	ADCSRA |= (1<<ADSC); // and init
     510:	80 81       	ld	r24, Z
     512:	80 64       	ori	r24, 0x40	; 64
     514:	80 83       	st	Z, r24
	while(ADCSRA & (1 << ADSC)); //test empty measurement
     516:	80 81       	ld	r24, Z
     518:	86 fd       	sbrc	r24, 6
     51a:	fd cf       	rjmp	.-6      	; 0x516 <readADC+0x1d0>

	//delete measurement value
	ADCH = 0x00;
     51c:	10 92 79 00 	sts	0x0079, r1
	ADCL = 0x00;
     520:	10 92 78 00 	sts	0x0078, r1
     524:	44 e0       	ldi	r20, 0x04	; 4
//===============================acd.c==============================================
#include "adc.h"

uint16_t readADC( uint8_t adc_channel)
{
	uint32_t adc_Value = 0;
     526:	80 e0       	ldi	r24, 0x00	; 0
     528:	90 e0       	ldi	r25, 0x00	; 0
     52a:	dc 01       	movw	r26, r24
	ADCH = 0x00;
	ADCL = 0x00;

	// choose average
	for (uint8_t g = 0; g < 4; g++) {
		ADCSRA |= (1<<ADSC); //start measurment
     52c:	ea e7       	ldi	r30, 0x7A	; 122
     52e:	f0 e0       	ldi	r31, 0x00	; 0
		while(ADCSRA & (1 << ADSC)); // wait for finish
		adc_Value = adc_Value + ( ADC ); // save
     530:	c8 e7       	ldi	r28, 0x78	; 120
     532:	d0 e0       	ldi	r29, 0x00	; 0
	ADCH = 0x00;
	ADCL = 0x00;

	// choose average
	for (uint8_t g = 0; g < 4; g++) {
		ADCSRA |= (1<<ADSC); //start measurment
     534:	20 81       	ld	r18, Z
     536:	20 64       	ori	r18, 0x40	; 64
     538:	20 83       	st	Z, r18
		while(ADCSRA & (1 << ADSC)); // wait for finish
     53a:	20 81       	ld	r18, Z
     53c:	26 fd       	sbrc	r18, 6
     53e:	fd cf       	rjmp	.-6      	; 0x53a <readADC+0x1f4>
		adc_Value = adc_Value + ( ADC ); // save
     540:	28 81       	ld	r18, Y
     542:	39 81       	ldd	r19, Y+1	; 0x01
     544:	82 0f       	add	r24, r18
     546:	93 1f       	adc	r25, r19
     548:	a1 1d       	adc	r26, r1
     54a:	b1 1d       	adc	r27, r1
     54c:	41 50       	subi	r20, 0x01	; 1
	//delete measurement value
	ADCH = 0x00;
	ADCL = 0x00;

	// choose average
	for (uint8_t g = 0; g < 4; g++) {
     54e:	91 f7       	brne	.-28     	; 0x534 <readADC+0x1ee>
		ADCSRA |= (1<<ADSC); //start measurment
		while(ADCSRA & (1 << ADSC)); // wait for finish
		adc_Value = adc_Value + ( ADC ); // save
	}
	adc_Value = adc_Value /4 ; //divide by 4
     550:	b6 95       	lsr	r27
     552:	a7 95       	ror	r26
     554:	97 95       	ror	r25
     556:	87 95       	ror	r24
     558:	b6 95       	lsr	r27
     55a:	a7 95       	ror	r26
     55c:	97 95       	ror	r25
     55e:	87 95       	ror	r24

	return adc_Value;
     560:	9c 01       	movw	r18, r24
     562:	02 c0       	rjmp	.+4      	; 0x568 <readADC+0x222>
		case 10:  adc_ch10; break;
		case 11:  adc_ch11; break;
		case 12:  adc_ch12; break;
		case 13:  adc_ch13; break;
		case 20: adc_temp; break;
		default:  {return (0);}	//error
     564:	20 e0       	ldi	r18, 0x00	; 0
     566:	30 e0       	ldi	r19, 0x00	; 0
		adc_Value = adc_Value + ( ADC ); // save
	}
	adc_Value = adc_Value /4 ; //divide by 4

	return adc_Value;
}
     568:	82 2f       	mov	r24, r18
     56a:	93 2f       	mov	r25, r19
     56c:	df 91       	pop	r29
     56e:	cf 91       	pop	r28
     570:	08 95       	ret

00000572 <adc_init>:

void adc_init () // adc init
{
	//choose internal_vref or external_vref here (definded im macros adc.h)
	//internal_vref   
	external_vref //use external Vref
     572:	ec e7       	ldi	r30, 0x7C	; 124
     574:	f0 e0       	ldi	r31, 0x00	; 0
     576:	80 81       	ld	r24, Z
     578:	8f 7b       	andi	r24, 0xBF	; 191
     57a:	80 83       	st	Z, r24
     57c:	80 81       	ld	r24, Z
     57e:	8f 77       	andi	r24, 0x7F	; 127
     580:	80 83       	st	Z, r24
	
	DDRF &= ~(( 1 << PF0 )|( 1 << PF1 ))   ;  // PIN F0 and F1 as input 
     582:	80 b3       	in	r24, 0x10	; 16
     584:	8c 7f       	andi	r24, 0xFC	; 252
     586:	80 bb       	out	0x10, r24	; 16
	ADMUX &= ~(1<<ADLAR); //auf oder abrunden
     588:	80 81       	ld	r24, Z
     58a:	8f 7d       	andi	r24, 0xDF	; 223
     58c:	80 83       	st	Z, r24
	adc_temp //choose channel for first empty measurment
     58e:	80 81       	ld	r24, Z
     590:	87 7e       	andi	r24, 0xE7	; 231
     592:	80 83       	st	Z, r24
     594:	80 81       	ld	r24, Z
     596:	87 60       	ori	r24, 0x07	; 7
     598:	80 83       	st	Z, r24
     59a:	ab e7       	ldi	r26, 0x7B	; 123
     59c:	b0 e0       	ldi	r27, 0x00	; 0
     59e:	8c 91       	ld	r24, X
     5a0:	80 62       	ori	r24, 0x20	; 32
     5a2:	8c 93       	st	X, r24
	ADCSRA |= ((1<<ADPS2) | (1<<ADPS1) | (1<<ADPS0)); //Prescaler  125KHz
     5a4:	ea e7       	ldi	r30, 0x7A	; 122
     5a6:	f0 e0       	ldi	r31, 0x00	; 0
     5a8:	80 81       	ld	r24, Z
     5aa:	87 60       	ori	r24, 0x07	; 7
     5ac:	80 83       	st	Z, r24
	ADCSRA &= ~(1<<ADATE); //no trigger mode
     5ae:	80 81       	ld	r24, Z
     5b0:	8f 7d       	andi	r24, 0xDF	; 223
     5b2:	80 83       	st	Z, r24
	ADCSRB |= (1<<ADHSM);//high speed mode
     5b4:	8c 91       	ld	r24, X
     5b6:	80 68       	ori	r24, 0x80	; 128
     5b8:	8c 93       	st	X, r24
	ADCSRA |= (1<<ADEN); //turn on
     5ba:	80 81       	ld	r24, Z
     5bc:	80 68       	ori	r24, 0x80	; 128
     5be:	80 83       	st	Z, r24
	ADCSRA |= (1<<ADSC); //init
     5c0:	80 81       	ld	r24, Z
     5c2:	80 64       	ori	r24, 0x40	; 64
     5c4:	80 83       	st	Z, r24
	while(ADCSRA & (1 << ADSC)); //empty test measurment
     5c6:	80 81       	ld	r24, Z
     5c8:	86 fd       	sbrc	r24, 6
     5ca:	fd cf       	rjmp	.-6      	; 0x5c6 <adc_init+0x54>
}
     5cc:	08 95       	ret

000005ce <gcode_handler>:
 } //else (kein g code)
}//cmd_handler


void gcode_handler(char command[250])
{
     5ce:	cf 93       	push	r28
     5d0:	df 93       	push	r29


	//das gehört hier spätern nicht her ist aber im moment zum testen einfacher so 	
	// TEST //////////////////////////////////////////////////////////////////////////////////////////////////////////
	uint16_t tmp=0;
	switch (command[0])
     5d2:	fc 01       	movw	r30, r24
     5d4:	80 81       	ld	r24, Z
     5d6:	90 e0       	ldi	r25, 0x00	; 0
     5d8:	fc 01       	movw	r30, r24
     5da:	7b 97       	sbiw	r30, 0x1b	; 27
     5dc:	e5 3c       	cpi	r30, 0xC5	; 197
     5de:	f1 05       	cpc	r31, r1
     5e0:	08 f0       	brcs	.+2      	; 0x5e4 <gcode_handler+0x16>
     5e2:	cd c0       	rjmp	.+410    	; 0x77e <gcode_handler+0x1b0>
     5e4:	ea 5a       	subi	r30, 0xAA	; 170
     5e6:	ff 4f       	sbci	r31, 0xFF	; 255
     5e8:	0c 94 6b 0d 	jmp	0x1ad6	; 0x1ad6 <__tablejump2__>
	{
		case 27: //escape -> bootloader
			gcode_mode=false;
     5ec:	10 92 e8 05 	sts	0x05E8, r1
			cmd_mode = true;
     5f0:	81 e0       	ldi	r24, 0x01	; 1
     5f2:	80 93 e9 05 	sts	0x05E9, r24
			usb_send_str("\r\nBack to cmd mode\r\n$");
     5f6:	8a e0       	ldi	r24, 0x0A	; 10
     5f8:	91 e0       	ldi	r25, 0x01	; 1
     5fa:	0e 94 1d 0d 	call	0x1a3a	; 0x1a3a <usb_send_str>
		break;
     5fe:	c3 c0       	rjmp	.+390    	; 0x786 <gcode_handler+0x1b8>
		
		case 'y':
		E6_off;
     600:	76 98       	cbi	0x0e, 6	; 14
		enable_stepper;
     602:	46 9a       	sbi	0x08, 6	; 8
		usb_send_str("\r\nenable stepper\r\n");
     604:	80 e2       	ldi	r24, 0x20	; 32
     606:	91 e0       	ldi	r25, 0x01	; 1
     608:	0e 94 1d 0d 	call	0x1a3a	; 0x1a3a <usb_send_str>
		break;
     60c:	bc c0       	rjmp	.+376    	; 0x786 <gcode_handler+0x1b8>
		
		case 'w':
		stepper_x_move(1);//1 step vor
     60e:	61 e0       	ldi	r22, 0x01	; 1
     610:	70 e0       	ldi	r23, 0x00	; 0
     612:	80 e0       	ldi	r24, 0x00	; 0
     614:	90 e0       	ldi	r25, 0x00	; 0
     616:	0e 94 66 07 	call	0xecc	; 0xecc <stepper_x_move>
		usb_serial_putchar('^');
     61a:	8e e5       	ldi	r24, 0x5E	; 94
     61c:	0e 94 fb 0a 	call	0x15f6	; 0x15f6 <usb_serial_putchar>
		break;
     620:	b2 c0       	rjmp	.+356    	; 0x786 <gcode_handler+0x1b8>
		
		case 's':
		stepper_x_move(-1);//1 step zurück
     622:	6f ef       	ldi	r22, 0xFF	; 255
     624:	7f ef       	ldi	r23, 0xFF	; 255
     626:	cb 01       	movw	r24, r22
     628:	0e 94 66 07 	call	0xecc	; 0xecc <stepper_x_move>
		usb_serial_putchar('v');
     62c:	86 e7       	ldi	r24, 0x76	; 118
     62e:	0e 94 fb 0a 	call	0x15f6	; 0x15f6 <usb_serial_putchar>
		break;
     632:	a9 c0       	rjmp	.+338    	; 0x786 <gcode_handler+0x1b8>
		
		case 'r':	//114=r  ^=94
		stepper_x_move(200);//200 steps vor (1 umdrehung)
     634:	68 ec       	ldi	r22, 0xC8	; 200
     636:	70 e0       	ldi	r23, 0x00	; 0
     638:	80 e0       	ldi	r24, 0x00	; 0
     63a:	90 e0       	ldi	r25, 0x00	; 0
     63c:	0e 94 66 07 	call	0xecc	; 0xecc <stepper_x_move>
		usb_send_str("(^ 200)");
     640:	83 e3       	ldi	r24, 0x33	; 51
     642:	91 e0       	ldi	r25, 0x01	; 1
     644:	0e 94 1d 0d 	call	0x1a3a	; 0x1a3a <usb_send_str>
		break;
     648:	9e c0       	rjmp	.+316    	; 0x786 <gcode_handler+0x1b8>
		
		case 'f':  //102=f v=118
		stepper_x_move(-200);//200 step zurückr (1umdrehung)
     64a:	68 e3       	ldi	r22, 0x38	; 56
     64c:	7f ef       	ldi	r23, 0xFF	; 255
     64e:	8f ef       	ldi	r24, 0xFF	; 255
     650:	9f ef       	ldi	r25, 0xFF	; 255
     652:	0e 94 66 07 	call	0xecc	; 0xecc <stepper_x_move>
		usb_send_str("(v 200)");
     656:	8b e3       	ldi	r24, 0x3B	; 59
     658:	91 e0       	ldi	r25, 0x01	; 1
     65a:	0e 94 1d 0d 	call	0x1a3a	; 0x1a3a <usb_send_str>
		break;
     65e:	93 c0       	rjmp	.+294    	; 0x786 <gcode_handler+0x1b8>
		
		
		case 'd':
		stepper_y_move(1);//1 step vor
     660:	61 e0       	ldi	r22, 0x01	; 1
     662:	70 e0       	ldi	r23, 0x00	; 0
     664:	80 e0       	ldi	r24, 0x00	; 0
     666:	90 e0       	ldi	r25, 0x00	; 0
     668:	0e 94 e7 07 	call	0xfce	; 0xfce <stepper_y_move>
		usb_serial_putchar('<');
     66c:	8c e3       	ldi	r24, 0x3C	; 60
     66e:	0e 94 fb 0a 	call	0x15f6	; 0x15f6 <usb_serial_putchar>
		break;
     672:	89 c0       	rjmp	.+274    	; 0x786 <gcode_handler+0x1b8>
		
		case 'a':
		stepper_y_move(-1);//1 step zurück
     674:	6f ef       	ldi	r22, 0xFF	; 255
     676:	7f ef       	ldi	r23, 0xFF	; 255
     678:	cb 01       	movw	r24, r22
     67a:	0e 94 e7 07 	call	0xfce	; 0xfce <stepper_y_move>
		usb_serial_putchar('>');
     67e:	8e e3       	ldi	r24, 0x3E	; 62
     680:	0e 94 fb 0a 	call	0x15f6	; 0x15f6 <usb_serial_putchar>
		break;
     684:	80 c0       	rjmp	.+256    	; 0x786 <gcode_handler+0x1b8>
		
		
		case 'q':
		stepper_y_move(-200);//200 step zurückr (1umdrehung)
     686:	68 e3       	ldi	r22, 0x38	; 56
     688:	7f ef       	ldi	r23, 0xFF	; 255
     68a:	8f ef       	ldi	r24, 0xFF	; 255
     68c:	9f ef       	ldi	r25, 0xFF	; 255
     68e:	0e 94 e7 07 	call	0xfce	; 0xfce <stepper_y_move>
		usb_send_str("(< 200)");
     692:	83 e4       	ldi	r24, 0x43	; 67
     694:	91 e0       	ldi	r25, 0x01	; 1
     696:	0e 94 1d 0d 	call	0x1a3a	; 0x1a3a <usb_send_str>
		break;
     69a:	75 c0       	rjmp	.+234    	; 0x786 <gcode_handler+0x1b8>
		
		case 'e':
		stepper_y_move(+200);//200 step zurückr (1umdrehung)
     69c:	68 ec       	ldi	r22, 0xC8	; 200
     69e:	70 e0       	ldi	r23, 0x00	; 0
     6a0:	80 e0       	ldi	r24, 0x00	; 0
     6a2:	90 e0       	ldi	r25, 0x00	; 0
     6a4:	0e 94 e7 07 	call	0xfce	; 0xfce <stepper_y_move>
		usb_send_str("(> 200)");
     6a8:	8b e4       	ldi	r24, 0x4B	; 75
     6aa:	91 e0       	ldi	r25, 0x01	; 1
     6ac:	0e 94 1d 0d 	call	0x1a3a	; 0x1a3a <usb_send_str>
		break;
     6b0:	6a c0       	rjmp	.+212    	; 0x786 <gcode_handler+0x1b8>
		
		case 'o':
		stepper_x_move(200);
     6b2:	68 ec       	ldi	r22, 0xC8	; 200
     6b4:	70 e0       	ldi	r23, 0x00	; 0
     6b6:	80 e0       	ldi	r24, 0x00	; 0
     6b8:	90 e0       	ldi	r25, 0x00	; 0
     6ba:	0e 94 66 07 	call	0xecc	; 0xecc <stepper_x_move>
		stepper_y_move(200);
     6be:	68 ec       	ldi	r22, 0xC8	; 200
     6c0:	70 e0       	ldi	r23, 0x00	; 0
     6c2:	80 e0       	ldi	r24, 0x00	; 0
     6c4:	90 e0       	ldi	r25, 0x00	; 0
     6c6:	0e 94 e7 07 	call	0xfce	; 0xfce <stepper_y_move>
		usb_send_str(" \r\n diagonal okay\r\n");
     6ca:	83 e5       	ldi	r24, 0x53	; 83
     6cc:	91 e0       	ldi	r25, 0x01	; 1
     6ce:	0e 94 1d 0d 	call	0x1a3a	; 0x1a3a <usb_send_str>
		break;
     6d2:	59 c0       	rjmp	.+178    	; 0x786 <gcode_handler+0x1b8>
		
		case 'p':
		stepper_x_move(-200);
     6d4:	68 e3       	ldi	r22, 0x38	; 56
     6d6:	7f ef       	ldi	r23, 0xFF	; 255
     6d8:	8f ef       	ldi	r24, 0xFF	; 255
     6da:	9f ef       	ldi	r25, 0xFF	; 255
     6dc:	0e 94 66 07 	call	0xecc	; 0xecc <stepper_x_move>
		stepper_y_move(-200);
     6e0:	68 e3       	ldi	r22, 0x38	; 56
     6e2:	7f ef       	ldi	r23, 0xFF	; 255
     6e4:	8f ef       	ldi	r24, 0xFF	; 255
     6e6:	9f ef       	ldi	r25, 0xFF	; 255
     6e8:	0e 94 e7 07 	call	0xfce	; 0xfce <stepper_y_move>
		usb_send_str("- diagonal okay\r\n");
     6ec:	87 e6       	ldi	r24, 0x67	; 103
     6ee:	91 e0       	ldi	r25, 0x01	; 1
     6f0:	0e 94 1d 0d 	call	0x1a3a	; 0x1a3a <usb_send_str>
		break;
     6f4:	48 c0       	rjmp	.+144    	; 0x786 <gcode_handler+0x1b8>
		
		case '+':
		stepper_z_move(20);
     6f6:	64 e1       	ldi	r22, 0x14	; 20
     6f8:	70 e0       	ldi	r23, 0x00	; 0
     6fa:	80 e0       	ldi	r24, 0x00	; 0
     6fc:	90 e0       	ldi	r25, 0x00	; 0
     6fe:	0e 94 68 08 	call	0x10d0	; 0x10d0 <stepper_z_move>
		break;
     702:	41 c0       	rjmp	.+130    	; 0x786 <gcode_handler+0x1b8>
		
		case '-':
		stepper_z_move(-20);
     704:	6c ee       	ldi	r22, 0xEC	; 236
     706:	7f ef       	ldi	r23, 0xFF	; 255
     708:	8f ef       	ldi	r24, 0xFF	; 255
     70a:	9f ef       	ldi	r25, 0xFF	; 255
     70c:	0e 94 68 08 	call	0x10d0	; 0x10d0 <stepper_z_move>
		break;
     710:	3a c0       	rjmp	.+116    	; 0x786 <gcode_handler+0x1b8>
		
		case 'z': //tool stop
		set_tool_speed(0); // wird von den anderern genutzt von 0 bis 1024
     712:	80 e0       	ldi	r24, 0x00	; 0
     714:	90 e0       	ldi	r25, 0x00	; 0
     716:	0e 94 67 0a 	call	0x14ce	; 0x14ce <set_tool_speed>
		usb_send_str("\r\ntool stop \r\n");
     71a:	89 e7       	ldi	r24, 0x79	; 121
     71c:	91 e0       	ldi	r25, 0x01	; 1
     71e:	0e 94 1d 0d 	call	0x1a3a	; 0x1a3a <usb_send_str>
		break;
     722:	31 c0       	rjmp	.+98     	; 0x786 <gcode_handler+0x1b8>
		
		case 'i': //initalisier tool (pwm timer starten)
		tool_init ();
     724:	0e 94 5a 0a 	call	0x14b4	; 0x14b4 <tool_init>
		usb_send_str("\r\ntool init done \r\n");
     728:	88 e8       	ldi	r24, 0x88	; 136
     72a:	91 e0       	ldi	r25, 0x01	; 1
     72c:	0e 94 1d 0d 	call	0x1a3a	; 0x1a3a <usb_send_str>
		break;
     730:	2a c0       	rjmp	.+84     	; 0x786 <gcode_handler+0x1b8>

		case 't': //initalisier tool (pwm timer starten)
		
		tmp = readADC(0);
     732:	80 e0       	ldi	r24, 0x00	; 0
     734:	0e 94 a3 01 	call	0x346	; 0x346 <readADC>
     738:	ec 01       	movw	r28, r24
		set_tool_speed (tmp);
     73a:	0e 94 67 0a 	call	0x14ce	; 0x14ce <set_tool_speed>
		usb_send_str("\r\ntool speed set to: ");
     73e:	8c e9       	ldi	r24, 0x9C	; 156
     740:	91 e0       	ldi	r25, 0x01	; 1
     742:	0e 94 1d 0d 	call	0x1a3a	; 0x1a3a <usb_send_str>
		usb_send_int(tmp);
     746:	be 01       	movw	r22, r28
     748:	80 e0       	ldi	r24, 0x00	; 0
     74a:	90 e0       	ldi	r25, 0x00	; 0
     74c:	0e 94 2b 0d 	call	0x1a56	; 0x1a56 <usb_send_int>
		break;
     750:	1a c0       	rjmp	.+52     	; 0x786 <gcode_handler+0x1b8>
		
		case 32: //leer 
		 stepper_x_move(-20000);
     752:	60 ee       	ldi	r22, 0xE0	; 224
     754:	71 eb       	ldi	r23, 0xB1	; 177
     756:	8f ef       	ldi	r24, 0xFF	; 255
     758:	9f ef       	ldi	r25, 0xFF	; 255
     75a:	0e 94 66 07 	call	0xecc	; 0xecc <stepper_x_move>
		 stepper_y_move(-20000);
     75e:	60 ee       	ldi	r22, 0xE0	; 224
     760:	71 eb       	ldi	r23, 0xB1	; 177
     762:	8f ef       	ldi	r24, 0xFF	; 255
     764:	9f ef       	ldi	r25, 0xFF	; 255
     766:	0e 94 e7 07 	call	0xfce	; 0xfce <stepper_y_move>
		break;
     76a:	0d c0       	rjmp	.+26     	; 0x786 <gcode_handler+0x1b8>
		
		case 'ß' : //wie ?
		case '?' :
		usb_send_str("  ?  hilft");
     76c:	82 eb       	ldi	r24, 0xB2	; 178
     76e:	91 e0       	ldi	r25, 0x01	; 1
     770:	0e 94 1d 0d 	call	0x1a3a	; 0x1a3a <usb_send_str>
		
		usb_send_str("\r\n==================================================\r\n\r\n"
     774:	8d eb       	ldi	r24, 0xBD	; 189
     776:	91 e0       	ldi	r25, 0x01	; 1
     778:	0e 94 1d 0d 	call	0x1a3a	; 0x1a3a <usb_send_str>
		"z: stop tool	\r\n\r\n"
		
		"y aktiviert die treiber nach notaus\r\n"
		"ESC to leave gcode mode"
		"?:  hilfe \r\n");
		break;
     77c:	04 c0       	rjmp	.+8      	; 0x786 <gcode_handler+0x1b8>
		
		default:      // Anweisungen wenn keine der oben definierten Bedingungen erfüllt ist
		usb_send_str("unbekannter befehl  -  ? für hilfe");
     77e:	83 e7       	ldi	r24, 0x73	; 115
     780:	93 e0       	ldi	r25, 0x03	; 3
     782:	0e 94 1d 0d 	call	0x1a3a	; 0x1a3a <usb_send_str>
	
	
	
	
	
     786:	df 91       	pop	r29
     788:	cf 91       	pop	r28
     78a:	08 95       	ret

0000078c <cmd_handler>:
bool cmd_mode = false;
bool gcode_mode = false;


void cmd_handler(char command[250])
{
     78c:	cf 93       	push	r28
     78e:	df 93       	push	r29
     790:	ec 01       	movw	r28, r24
if (gcode_mode==true)
     792:	80 91 e8 05 	lds	r24, 0x05E8
     796:	88 23       	and	r24, r24
     798:	21 f0       	breq	.+8      	; 0x7a2 <cmd_handler+0x16>
 {
	gcode_handler(command);				
     79a:	ce 01       	movw	r24, r28
     79c:	0e 94 e7 02 	call	0x5ce	; 0x5ce <gcode_handler>
     7a0:	0d c1       	rjmp	.+538    	; 0x9bc <cmd_handler+0x230>
 }
else	//kein g code mode prüfe das command
 {
		
		
	if (strncmp(command,"cmd",3)==0)
     7a2:	43 e0       	ldi	r20, 0x03	; 3
     7a4:	50 e0       	ldi	r21, 0x00	; 0
     7a6:	66 e9       	ldi	r22, 0x96	; 150
     7a8:	73 e0       	ldi	r23, 0x03	; 3
     7aa:	ce 01       	movw	r24, r28
     7ac:	0e 94 af 0d 	call	0x1b5e	; 0x1b5e <strncmp>
     7b0:	28 2f       	mov	r18, r24
     7b2:	39 2f       	mov	r19, r25
     7b4:	23 2b       	or	r18, r19
     7b6:	39 f4       	brne	.+14     	; 0x7c6 <cmd_handler+0x3a>
	{
		cmd_mode=true;
     7b8:	81 e0       	ldi	r24, 0x01	; 1
     7ba:	80 93 e9 05 	sts	0x05E9, r24
		usb_send_str("\r\nCommand line mode - OK \r\n");
     7be:	8a e9       	ldi	r24, 0x9A	; 154
     7c0:	93 e0       	ldi	r25, 0x03	; 3
     7c2:	0e 94 1d 0d 	call	0x1a3a	; 0x1a3a <usb_send_str>
	}

	if (cmd_mode==true)
     7c6:	80 91 e9 05 	lds	r24, 0x05E9
     7ca:	88 23       	and	r24, r24
     7cc:	09 f4       	brne	.+2      	; 0x7d0 <cmd_handler+0x44>
     7ce:	ef c0       	rjmp	.+478    	; 0x9ae <cmd_handler+0x222>
	{
	
		if (command[0]=='?' || (strncmp(command,"help",4)==0)  )
     7d0:	88 81       	ld	r24, Y
     7d2:	8f 33       	cpi	r24, 0x3F	; 63
     7d4:	59 f0       	breq	.+22     	; 0x7ec <cmd_handler+0x60>
     7d6:	44 e0       	ldi	r20, 0x04	; 4
     7d8:	50 e0       	ldi	r21, 0x00	; 0
     7da:	66 eb       	ldi	r22, 0xB6	; 182
     7dc:	73 e0       	ldi	r23, 0x03	; 3
     7de:	ce 01       	movw	r24, r28
     7e0:	0e 94 af 0d 	call	0x1b5e	; 0x1b5e <strncmp>
     7e4:	28 2f       	mov	r18, r24
     7e6:	39 2f       	mov	r19, r25
     7e8:	23 2b       	or	r18, r19
     7ea:	29 f4       	brne	.+10     	; 0x7f6 <cmd_handler+0x6a>
			{
			usb_send_str("\r\n A wild help meue apperars -  not\r\n$");		
     7ec:	8b eb       	ldi	r24, 0xBB	; 187
     7ee:	93 e0       	ldi	r25, 0x03	; 3
     7f0:	0e 94 1d 0d 	call	0x1a3a	; 0x1a3a <usb_send_str>
     7f4:	e3 c0       	rjmp	.+454    	; 0x9bc <cmd_handler+0x230>
			}
		 else if (strncmp(command,"uptime",6)==0)
     7f6:	46 e0       	ldi	r20, 0x06	; 6
     7f8:	50 e0       	ldi	r21, 0x00	; 0
     7fa:	62 ee       	ldi	r22, 0xE2	; 226
     7fc:	73 e0       	ldi	r23, 0x03	; 3
     7fe:	ce 01       	movw	r24, r28
     800:	0e 94 af 0d 	call	0x1b5e	; 0x1b5e <strncmp>
     804:	28 2f       	mov	r18, r24
     806:	39 2f       	mov	r19, r25
     808:	23 2b       	or	r18, r19
     80a:	69 f4       	brne	.+26     	; 0x826 <cmd_handler+0x9a>
			{
			usb_send_str("\r\nuptime:");
     80c:	89 ee       	ldi	r24, 0xE9	; 233
     80e:	93 e0       	ldi	r25, 0x03	; 3
     810:	0e 94 1d 0d 	call	0x1a3a	; 0x1a3a <usb_send_str>
			usb_send_int(millis());
     814:	0e 94 c6 05 	call	0xb8c	; 0xb8c <millis>
     818:	0e 94 2b 0d 	call	0x1a56	; 0x1a56 <usb_send_int>
			usb_send_str("\r\n$");
     81c:	8f e0       	ldi	r24, 0x0F	; 15
     81e:	94 e0       	ldi	r25, 0x04	; 4
     820:	0e 94 1d 0d 	call	0x1a3a	; 0x1a3a <usb_send_str>
     824:	cb c0       	rjmp	.+406    	; 0x9bc <cmd_handler+0x230>
			}		 
		 		
		else if (strncmp(command,"led on",6)==0)
     826:	46 e0       	ldi	r20, 0x06	; 6
     828:	50 e0       	ldi	r21, 0x00	; 0
     82a:	63 ef       	ldi	r22, 0xF3	; 243
     82c:	73 e0       	ldi	r23, 0x03	; 3
     82e:	ce 01       	movw	r24, r28
     830:	0e 94 af 0d 	call	0x1b5e	; 0x1b5e <strncmp>
     834:	28 2f       	mov	r18, r24
     836:	39 2f       	mov	r19, r25
     838:	23 2b       	or	r18, r19
     83a:	31 f4       	brne	.+12     	; 0x848 <cmd_handler+0xbc>
			{
			 E6_on;
     83c:	76 9a       	sbi	0x0e, 6	; 14
			 usb_send_str("\r\n led eingeschaltet \r\n$");
     83e:	8a ef       	ldi	r24, 0xFA	; 250
     840:	93 e0       	ldi	r25, 0x03	; 3
     842:	0e 94 1d 0d 	call	0x1a3a	; 0x1a3a <usb_send_str>
     846:	ba c0       	rjmp	.+372    	; 0x9bc <cmd_handler+0x230>
			 }
		else if (strncmp(command,"led off",7)==0)
     848:	47 e0       	ldi	r20, 0x07	; 7
     84a:	50 e0       	ldi	r21, 0x00	; 0
     84c:	63 e1       	ldi	r22, 0x13	; 19
     84e:	74 e0       	ldi	r23, 0x04	; 4
     850:	ce 01       	movw	r24, r28
     852:	0e 94 af 0d 	call	0x1b5e	; 0x1b5e <strncmp>
     856:	28 2f       	mov	r18, r24
     858:	39 2f       	mov	r19, r25
     85a:	23 2b       	or	r18, r19
     85c:	31 f4       	brne	.+12     	; 0x86a <cmd_handler+0xde>
			{
				E6_off;
     85e:	76 98       	cbi	0x0e, 6	; 14
				usb_send_str("\r\n led ausgeschaltet \r\n$");
     860:	8b e1       	ldi	r24, 0x1B	; 27
     862:	94 e0       	ldi	r25, 0x04	; 4
     864:	0e 94 1d 0d 	call	0x1a3a	; 0x1a3a <usb_send_str>
     868:	a9 c0       	rjmp	.+338    	; 0x9bc <cmd_handler+0x230>
			//		uint32_t	   4.294.967.295	=> 21474836,48 mm	-> 2147483 cm -> 21474 m
			//		
			//		
			//////////////////////////////////////////////////////////////////////////////////////////////////////
			
		else if (strncmp(command,"movex ",6)==0)
     86a:	46 e0       	ldi	r20, 0x06	; 6
     86c:	50 e0       	ldi	r21, 0x00	; 0
     86e:	64 e3       	ldi	r22, 0x34	; 52
     870:	74 e0       	ldi	r23, 0x04	; 4
     872:	ce 01       	movw	r24, r28
     874:	0e 94 af 0d 	call	0x1b5e	; 0x1b5e <strncmp>
     878:	28 2f       	mov	r18, r24
     87a:	39 2f       	mov	r19, r25
     87c:	23 2b       	or	r18, r19
     87e:	89 f4       	brne	.+34     	; 0x8a2 <cmd_handler+0x116>
		{  
			stepper_x_move (  200 *  (atol	(command+6)));
     880:	ce 01       	movw	r24, r28
     882:	06 96       	adiw	r24, 0x06	; 6
     884:	0e 94 88 0d 	call	0x1b10	; 0x1b10 <atol>
     888:	9b 01       	movw	r18, r22
     88a:	ac 01       	movw	r20, r24
     88c:	a8 ec       	ldi	r26, 0xC8	; 200
     88e:	b0 e0       	ldi	r27, 0x00	; 0
     890:	0e 94 71 0d 	call	0x1ae2	; 0x1ae2 <__muluhisi3>
     894:	0e 94 66 07 	call	0xecc	; 0xecc <stepper_x_move>
			usb_send_str(" \r\n$");
     898:	8e e0       	ldi	r24, 0x0E	; 14
     89a:	94 e0       	ldi	r25, 0x04	; 4
     89c:	0e 94 1d 0d 	call	0x1a3a	; 0x1a3a <usb_send_str>
     8a0:	8d c0       	rjmp	.+282    	; 0x9bc <cmd_handler+0x230>
		 }	
			
		else if (strncmp(command,"movey ",6)==0)
     8a2:	46 e0       	ldi	r20, 0x06	; 6
     8a4:	50 e0       	ldi	r21, 0x00	; 0
     8a6:	6b e3       	ldi	r22, 0x3B	; 59
     8a8:	74 e0       	ldi	r23, 0x04	; 4
     8aa:	ce 01       	movw	r24, r28
     8ac:	0e 94 af 0d 	call	0x1b5e	; 0x1b5e <strncmp>
     8b0:	28 2f       	mov	r18, r24
     8b2:	39 2f       	mov	r19, r25
     8b4:	23 2b       	or	r18, r19
     8b6:	89 f4       	brne	.+34     	; 0x8da <cmd_handler+0x14e>
		{
			stepper_y_move (  200 *  (atol	(command+6)));
     8b8:	ce 01       	movw	r24, r28
     8ba:	06 96       	adiw	r24, 0x06	; 6
     8bc:	0e 94 88 0d 	call	0x1b10	; 0x1b10 <atol>
     8c0:	9b 01       	movw	r18, r22
     8c2:	ac 01       	movw	r20, r24
     8c4:	a8 ec       	ldi	r26, 0xC8	; 200
     8c6:	b0 e0       	ldi	r27, 0x00	; 0
     8c8:	0e 94 71 0d 	call	0x1ae2	; 0x1ae2 <__muluhisi3>
     8cc:	0e 94 e7 07 	call	0xfce	; 0xfce <stepper_y_move>
			usb_send_str(" \r\n$");
     8d0:	8e e0       	ldi	r24, 0x0E	; 14
     8d2:	94 e0       	ldi	r25, 0x04	; 4
     8d4:	0e 94 1d 0d 	call	0x1a3a	; 0x1a3a <usb_send_str>
     8d8:	71 c0       	rjmp	.+226    	; 0x9bc <cmd_handler+0x230>
		}
		else if (strncmp(command,"movez ",6)==0)
     8da:	46 e0       	ldi	r20, 0x06	; 6
     8dc:	50 e0       	ldi	r21, 0x00	; 0
     8de:	62 e4       	ldi	r22, 0x42	; 66
     8e0:	74 e0       	ldi	r23, 0x04	; 4
     8e2:	ce 01       	movw	r24, r28
     8e4:	0e 94 af 0d 	call	0x1b5e	; 0x1b5e <strncmp>
     8e8:	28 2f       	mov	r18, r24
     8ea:	39 2f       	mov	r19, r25
     8ec:	23 2b       	or	r18, r19
     8ee:	89 f4       	brne	.+34     	; 0x912 <cmd_handler+0x186>
		{
			stepper_z_move (  200 *  (atol	(command+6)));
     8f0:	ce 01       	movw	r24, r28
     8f2:	06 96       	adiw	r24, 0x06	; 6
     8f4:	0e 94 88 0d 	call	0x1b10	; 0x1b10 <atol>
     8f8:	9b 01       	movw	r18, r22
     8fa:	ac 01       	movw	r20, r24
     8fc:	a8 ec       	ldi	r26, 0xC8	; 200
     8fe:	b0 e0       	ldi	r27, 0x00	; 0
     900:	0e 94 71 0d 	call	0x1ae2	; 0x1ae2 <__muluhisi3>
     904:	0e 94 68 08 	call	0x10d0	; 0x10d0 <stepper_z_move>
			usb_send_str(" \r\n$");
     908:	8e e0       	ldi	r24, 0x0E	; 14
     90a:	94 e0       	ldi	r25, 0x04	; 4
     90c:	0e 94 1d 0d 	call	0x1a3a	; 0x1a3a <usb_send_str>
     910:	55 c0       	rjmp	.+170    	; 0x9bc <cmd_handler+0x230>
		}					
			
		  
		
		  else if (strncmp(command,"gcode",5)==0)
     912:	45 e0       	ldi	r20, 0x05	; 5
     914:	50 e0       	ldi	r21, 0x00	; 0
     916:	69 e4       	ldi	r22, 0x49	; 73
     918:	74 e0       	ldi	r23, 0x04	; 4
     91a:	ce 01       	movw	r24, r28
     91c:	0e 94 af 0d 	call	0x1b5e	; 0x1b5e <strncmp>
     920:	28 2f       	mov	r18, r24
     922:	39 2f       	mov	r19, r25
     924:	23 2b       	or	r18, r19
     926:	51 f4       	brne	.+20     	; 0x93c <cmd_handler+0x1b0>
			{
			gcode_mode=true;
     928:	81 e0       	ldi	r24, 0x01	; 1
     92a:	80 93 e8 05 	sts	0x05E8, r24
			cmd_mode =false;
     92e:	10 92 e9 05 	sts	0x05E9, r1
			usb_send_str("You are in Gcode-Mode now  -  ESC to leave \r\n>");
     932:	8f e4       	ldi	r24, 0x4F	; 79
     934:	94 e0       	ldi	r25, 0x04	; 4
     936:	0e 94 1d 0d 	call	0x1a3a	; 0x1a3a <usb_send_str>
     93a:	40 c0       	rjmp	.+128    	; 0x9bc <cmd_handler+0x230>
			}		 
		 	
		 else if (strncmp(command,"exit",4)==0)
     93c:	44 e0       	ldi	r20, 0x04	; 4
     93e:	50 e0       	ldi	r21, 0x00	; 0
     940:	6e e7       	ldi	r22, 0x7E	; 126
     942:	74 e0       	ldi	r23, 0x04	; 4
     944:	ce 01       	movw	r24, r28
     946:	0e 94 af 0d 	call	0x1b5e	; 0x1b5e <strncmp>
     94a:	28 2f       	mov	r18, r24
     94c:	39 2f       	mov	r19, r25
     94e:	23 2b       	or	r18, r19
     950:	39 f4       	brne	.+14     	; 0x960 <cmd_handler+0x1d4>
			{
			 cmd_mode=false;
     952:	10 92 e9 05 	sts	0x05E9, r1
			 usb_send_str("\r\n Command line closed");
     956:	83 e8       	ldi	r24, 0x83	; 131
     958:	94 e0       	ldi	r25, 0x04	; 4
     95a:	0e 94 1d 0d 	call	0x1a3a	; 0x1a3a <usb_send_str>
     95e:	2e c0       	rjmp	.+92     	; 0x9bc <cmd_handler+0x230>
			 }
		 else if (strncmp(command,"boot",4)==0)
     960:	44 e0       	ldi	r20, 0x04	; 4
     962:	50 e0       	ldi	r21, 0x00	; 0
     964:	6a e9       	ldi	r22, 0x9A	; 154
     966:	74 e0       	ldi	r23, 0x04	; 4
     968:	ce 01       	movw	r24, r28
     96a:	0e 94 af 0d 	call	0x1b5e	; 0x1b5e <strncmp>
     96e:	28 2f       	mov	r18, r24
     970:	39 2f       	mov	r19, r25
     972:	23 2b       	or	r18, r19
     974:	39 f4       	brne	.+14     	; 0x984 <cmd_handler+0x1f8>
			{
			 usb_send_str("\r\n =========================================================\r\n||\t\t Bootloader mode\t\t\t ||\r\n ========================================================= ");
     976:	8f e9       	ldi	r24, 0x9F	; 159
     978:	94 e0       	ldi	r25, 0x04	; 4
     97a:	0e 94 1d 0d 	call	0x1a3a	; 0x1a3a <usb_send_str>
			 bootloader();
     97e:	0e 94 4f 06 	call	0xc9e	; 0xc9e <bootloader>
     982:	1c c0       	rjmp	.+56     	; 0x9bc <cmd_handler+0x230>
			 }
		else if (strncmp(command,"cmd",3)==0)
     984:	43 e0       	ldi	r20, 0x03	; 3
     986:	50 e0       	ldi	r21, 0x00	; 0
     988:	66 e9       	ldi	r22, 0x96	; 150
     98a:	73 e0       	ldi	r23, 0x03	; 3
     98c:	ce 01       	movw	r24, r28
     98e:	0e 94 af 0d 	call	0x1b5e	; 0x1b5e <strncmp>
     992:	28 2f       	mov	r18, r24
     994:	39 2f       	mov	r19, r25
     996:	23 2b       	or	r18, r19
     998:	29 f4       	brne	.+10     	; 0x9a4 <cmd_handler+0x218>
			{
			 usb_send_str("\r\n$");
     99a:	8f e0       	ldi	r24, 0x0F	; 15
     99c:	94 e0       	ldi	r25, 0x04	; 4
     99e:	0e 94 1d 0d 	call	0x1a3a	; 0x1a3a <usb_send_str>
     9a2:	0c c0       	rjmp	.+24     	; 0x9bc <cmd_handler+0x230>
			}	
		 else //unbekanntes commando
			{
			usb_send_str("\r\n unknown command '?' for help\r\n$");
     9a4:	85 e3       	ldi	r24, 0x35	; 53
     9a6:	95 e0       	ldi	r25, 0x05	; 5
     9a8:	0e 94 1d 0d 	call	0x1a3a	; 0x1a3a <usb_send_str>
     9ac:	07 c0       	rjmp	.+14     	; 0x9bc <cmd_handler+0x230>
			}	 		
	}
	else //cmd mode ist deaktiviert
	{
		usb_send_str(command);
     9ae:	ce 01       	movw	r24, r28
     9b0:	0e 94 1d 0d 	call	0x1a3a	; 0x1a3a <usb_send_str>
		usb_send_str("\r\n type 'cmd' to enter command line mode\r\n");
     9b4:	88 e5       	ldi	r24, 0x58	; 88
     9b6:	95 e0       	ldi	r25, 0x05	; 5
     9b8:	0e 94 1d 0d 	call	0x1a3a	; 0x1a3a <usb_send_str>
	}
	
 } //else (kein g code)
}//cmd_handler
     9bc:	df 91       	pop	r29
     9be:	cf 91       	pop	r28
     9c0:	08 95       	ret

000009c2 <timer_init>:
	//cli();

	//  TCCR1A    Normal port operation, OCnA/OCnB/OCnC disconnected.
	//            WGM10 & WGM11 are clear for CTC mode see TCCR1B
	//  On reset cleared to 0 Not really necessary Better safe than sorry
	TCCR1A = 0;
     9c2:	10 92 80 00 	sts	0x0080, r1

	
	TCCR1B = (1 << WGM12) | (1 << CS11)| (1 << CS10);//  TCCR1B Prescaler = clk/8, CTC mode
     9c6:	8b e0       	ldi	r24, 0x0B	; 11
     9c8:	80 93 81 00 	sts	0x0081, r24
	//TCCR1B = (1 << WGM12) | (1 << CS12); //prescaler und ctc mode = clk/256
	//TCCR1B = (1 << WGM12) | (1 << CS10); //prescaler und ctc mode = clk/1

	//  TCCR1C not forcing output compare
	//  On reset cleared to 0 Not really necessary Better safe than sorry
	TCCR1C = 0;
     9cc:	10 92 82 00 	sts	0x0082, r1

	// TCNT1 set timer counter initial value (16 bit value)
	//  On reset cleared to 0 Not really necessary Better safe than sorry
	TCNT1 = 0;
     9d0:	10 92 85 00 	sts	0x0085, r1
     9d4:	10 92 84 00 	sts	0x0084, r1

	// OCR1A Interrupts on OCR1A compare  (every 1 second)
	OCR1A = Int_Timer_Ticks;
     9d8:	8a ef       	ldi	r24, 0xFA	; 250
     9da:	90 e0       	ldi	r25, 0x00	; 0
     9dc:	90 93 89 00 	sts	0x0089, r25
     9e0:	80 93 88 00 	sts	0x0088, r24

	//   OCR1AH = (Int_Timer_Ticks >> 8);
	//   OCR1AL = (Int_Timer_Ticks & 0x00FF);

	// T1MSK1 Timer/Counter1 Output Compare A Match interrupt is enabled
	TIMSK1 = (1 << OCIE1A);
     9e4:	82 e0       	ldi	r24, 0x02	; 2
     9e6:	80 93 6f 00 	sts	0x006F, r24
     9ea:	08 95       	ret

000009ec <interrupt_1s>:
{
	//E6_toggle //debug only
	
	///////////////////////////  X //////////////////////////////////////////////
	// steps_x wird in main eingelesen per tastendruck einelesen
	if (steps_x>0)//positive laufrichtung
     9ec:	80 91 f8 05 	lds	r24, 0x05F8
     9f0:	90 91 f9 05 	lds	r25, 0x05F9
     9f4:	a0 91 fa 05 	lds	r26, 0x05FA
     9f8:	b0 91 fb 05 	lds	r27, 0x05FB
     9fc:	18 16       	cp	r1, r24
     9fe:	19 06       	cpc	r1, r25
     a00:	1a 06       	cpc	r1, r26
     a02:	1b 06       	cpc	r1, r27
     a04:	74 f4       	brge	.+28     	; 0xa22 <interrupt_1s+0x36>
	{
		steps_x--; //i step weniger da er erledigt ist
     a06:	01 97       	sbiw	r24, 0x01	; 1
     a08:	a1 09       	sbc	r26, r1
     a0a:	b1 09       	sbc	r27, r1
     a0c:	80 93 f8 05 	sts	0x05F8, r24
     a10:	90 93 f9 05 	sts	0x05F9, r25
     a14:	a0 93 fa 05 	sts	0x05FA, r26
     a18:	b0 93 fb 05 	sts	0x05FB, r27
		stepper_x_forward();
     a1c:	0e 94 00 07 	call	0xe00	; 0xe00 <stepper_x_forward>
     a20:	0f c0       	rjmp	.+30     	; 0xa40 <interrupt_1s+0x54>
	}
	else if (steps_x<0) //negative laufrichtung erstmal ignoriern
     a22:	bb 23       	and	r27, r27
     a24:	6c f4       	brge	.+26     	; 0xa40 <interrupt_1s+0x54>
	{
		steps_x++; //i step weniger da er erledigt ist (nähr an 0)
     a26:	01 96       	adiw	r24, 0x01	; 1
     a28:	a1 1d       	adc	r26, r1
     a2a:	b1 1d       	adc	r27, r1
     a2c:	80 93 f8 05 	sts	0x05F8, r24
     a30:	90 93 f9 05 	sts	0x05F9, r25
     a34:	a0 93 fa 05 	sts	0x05FA, r26
     a38:	b0 93 fb 05 	sts	0x05FB, r27
		stepper_x_backward();
     a3c:	0e 94 33 07 	call	0xe66	; 0xe66 <stepper_x_backward>
	}
	//////////////////////////////////////////////////////////////////////////////

	///////////////////////////  Y  //////////////////////////////////////////////
	// steps_y wird in main eingelesen per tastendruck einelesen
	if (steps_y>0)//positive laufrichtung
     a40:	80 91 f4 05 	lds	r24, 0x05F4
     a44:	90 91 f5 05 	lds	r25, 0x05F5
     a48:	a0 91 f6 05 	lds	r26, 0x05F6
     a4c:	b0 91 f7 05 	lds	r27, 0x05F7
     a50:	18 16       	cp	r1, r24
     a52:	19 06       	cpc	r1, r25
     a54:	1a 06       	cpc	r1, r26
     a56:	1b 06       	cpc	r1, r27
     a58:	74 f4       	brge	.+28     	; 0xa76 <interrupt_1s+0x8a>
	{
		steps_y--; //i step weniger da er erledigt ist
     a5a:	01 97       	sbiw	r24, 0x01	; 1
     a5c:	a1 09       	sbc	r26, r1
     a5e:	b1 09       	sbc	r27, r1
     a60:	80 93 f4 05 	sts	0x05F4, r24
     a64:	90 93 f5 05 	sts	0x05F5, r25
     a68:	a0 93 f6 05 	sts	0x05F6, r26
     a6c:	b0 93 f7 05 	sts	0x05F7, r27
		stepper_y_forward();
     a70:	0e 94 81 07 	call	0xf02	; 0xf02 <stepper_y_forward>
     a74:	0f c0       	rjmp	.+30     	; 0xa94 <interrupt_1s+0xa8>
	}
	else if (steps_y<0) //negative laufrichtung erstmal ignoriern
     a76:	bb 23       	and	r27, r27
     a78:	6c f4       	brge	.+26     	; 0xa94 <interrupt_1s+0xa8>
	{
		steps_y++; //i step weniger da er erledigt ist (nähr an 0)
     a7a:	01 96       	adiw	r24, 0x01	; 1
     a7c:	a1 1d       	adc	r26, r1
     a7e:	b1 1d       	adc	r27, r1
     a80:	80 93 f4 05 	sts	0x05F4, r24
     a84:	90 93 f5 05 	sts	0x05F5, r25
     a88:	a0 93 f6 05 	sts	0x05F6, r26
     a8c:	b0 93 f7 05 	sts	0x05F7, r27
		stepper_y_backward();
     a90:	0e 94 b4 07 	call	0xf68	; 0xf68 <stepper_y_backward>
	////////////////////////////////////////////////////////////////////////////

	
	///////////////////////////  Z //////////////////////////////////////////////
	// steps_z wird in main eingelesen per tastendruck einelesen
	if (steps_z>0)//positive laufrichtung
     a94:	80 91 f0 05 	lds	r24, 0x05F0
     a98:	90 91 f1 05 	lds	r25, 0x05F1
     a9c:	a0 91 f2 05 	lds	r26, 0x05F2
     aa0:	b0 91 f3 05 	lds	r27, 0x05F3
     aa4:	18 16       	cp	r1, r24
     aa6:	19 06       	cpc	r1, r25
     aa8:	1a 06       	cpc	r1, r26
     aaa:	1b 06       	cpc	r1, r27
     aac:	74 f4       	brge	.+28     	; 0xaca <interrupt_1s+0xde>
	{
		steps_z--; //i step weniger da er erledigt ist
     aae:	01 97       	sbiw	r24, 0x01	; 1
     ab0:	a1 09       	sbc	r26, r1
     ab2:	b1 09       	sbc	r27, r1
     ab4:	80 93 f0 05 	sts	0x05F0, r24
     ab8:	90 93 f1 05 	sts	0x05F1, r25
     abc:	a0 93 f2 05 	sts	0x05F2, r26
     ac0:	b0 93 f3 05 	sts	0x05F3, r27
		stepper_z_forward();
     ac4:	0e 94 02 08 	call	0x1004	; 0x1004 <stepper_z_forward>
     ac8:	08 95       	ret
	}
	else if (steps_z<0) //negative laufrichtung erstmal ignoriern
     aca:	bb 23       	and	r27, r27
     acc:	6c f4       	brge	.+26     	; 0xae8 <interrupt_1s+0xfc>
	{
		steps_z++; //i step weniger da er erledigt ist (nähr an 0)
     ace:	01 96       	adiw	r24, 0x01	; 1
     ad0:	a1 1d       	adc	r26, r1
     ad2:	b1 1d       	adc	r27, r1
     ad4:	80 93 f0 05 	sts	0x05F0, r24
     ad8:	90 93 f1 05 	sts	0x05F1, r25
     adc:	a0 93 f2 05 	sts	0x05F2, r26
     ae0:	b0 93 f3 05 	sts	0x05F3, r27
		stepper_z_backward();
     ae4:	0e 94 35 08 	call	0x106a	; 0x106a <stepper_z_backward>
     ae8:	08 95       	ret

00000aea <interrupt_1ms>:

}

void interrupt_1ms()
{
	sec_counter++;
     aea:	80 91 ea 05 	lds	r24, 0x05EA
     aee:	90 91 eb 05 	lds	r25, 0x05EB
     af2:	01 96       	adiw	r24, 0x01	; 1
     af4:	90 93 eb 05 	sts	0x05EB, r25
     af8:	80 93 ea 05 	sts	0x05EA, r24
	if (sec_counter>=readADC(0))
     afc:	80 e0       	ldi	r24, 0x00	; 0
     afe:	0e 94 a3 01 	call	0x346	; 0x346 <readADC>
     b02:	20 91 ea 05 	lds	r18, 0x05EA
     b06:	30 91 eb 05 	lds	r19, 0x05EB
     b0a:	28 17       	cp	r18, r24
     b0c:	39 07       	cpc	r19, r25
     b0e:	30 f0       	brcs	.+12     	; 0xb1c <__stack+0x1d>
	{
		sec_counter=0;
     b10:	10 92 eb 05 	sts	0x05EB, r1
     b14:	10 92 ea 05 	sts	0x05EA, r1
		interrupt_1s();
     b18:	0e 94 f6 04 	call	0x9ec	; 0x9ec <interrupt_1s>
     b1c:	08 95       	ret

00000b1e <__vector_17>:
	// T1MSK1 Timer/Counter1 Output Compare A Match interrupt is enabled
	TIMSK1 = (1 << OCIE1A);
}

ISR( TIMER1_COMPA_vect) // 16 bit timer 1 compare 1A match
{
     b1e:	1f 92       	push	r1
     b20:	0f 92       	push	r0
     b22:	0f b6       	in	r0, 0x3f	; 63
     b24:	0f 92       	push	r0
     b26:	11 24       	eor	r1, r1
     b28:	2f 93       	push	r18
     b2a:	3f 93       	push	r19
     b2c:	4f 93       	push	r20
     b2e:	5f 93       	push	r21
     b30:	6f 93       	push	r22
     b32:	7f 93       	push	r23
     b34:	8f 93       	push	r24
     b36:	9f 93       	push	r25
     b38:	af 93       	push	r26
     b3a:	bf 93       	push	r27
     b3c:	ef 93       	push	r30
     b3e:	ff 93       	push	r31
	uptime++;
     b40:	80 91 ec 05 	lds	r24, 0x05EC
     b44:	90 91 ed 05 	lds	r25, 0x05ED
     b48:	a0 91 ee 05 	lds	r26, 0x05EE
     b4c:	b0 91 ef 05 	lds	r27, 0x05EF
     b50:	01 96       	adiw	r24, 0x01	; 1
     b52:	a1 1d       	adc	r26, r1
     b54:	b1 1d       	adc	r27, r1
     b56:	80 93 ec 05 	sts	0x05EC, r24
     b5a:	90 93 ed 05 	sts	0x05ED, r25
     b5e:	a0 93 ee 05 	sts	0x05EE, r26
     b62:	b0 93 ef 05 	sts	0x05EF, r27
	interrupt_1ms();
     b66:	0e 94 75 05 	call	0xaea	; 0xaea <interrupt_1ms>
}
     b6a:	ff 91       	pop	r31
     b6c:	ef 91       	pop	r30
     b6e:	bf 91       	pop	r27
     b70:	af 91       	pop	r26
     b72:	9f 91       	pop	r25
     b74:	8f 91       	pop	r24
     b76:	7f 91       	pop	r23
     b78:	6f 91       	pop	r22
     b7a:	5f 91       	pop	r21
     b7c:	4f 91       	pop	r20
     b7e:	3f 91       	pop	r19
     b80:	2f 91       	pop	r18
     b82:	0f 90       	pop	r0
     b84:	0f be       	out	0x3f, r0	; 63
     b86:	0f 90       	pop	r0
     b88:	1f 90       	pop	r1
     b8a:	18 95       	reti

00000b8c <millis>:
	*/
}

uint32_t millis()
{
	return uptime;
     b8c:	60 91 ec 05 	lds	r22, 0x05EC
     b90:	70 91 ed 05 	lds	r23, 0x05ED
}
     b94:	80 91 ee 05 	lds	r24, 0x05EE
     b98:	90 91 ef 05 	lds	r25, 0x05EF
     b9c:	08 95       	ret

00000b9e <sleep_ms>:
		_delay_us(1);
	}
}

void sleep_ms(uint16_t ms){
	while(ms){
     b9e:	00 97       	sbiw	r24, 0x00	; 0
     ba0:	49 f0       	breq	.+18     	; 0xbb4 <sleep_ms+0x16>
		ms--;
     ba2:	01 97       	sbiw	r24, 0x01	; 1
	#else
		//round up by default
		__ticks_dc = (uint32_t)(ceil(fabs(__tmp)));
	#endif

	__builtin_avr_delay_cycles(__ticks_dc);
     ba4:	ef e9       	ldi	r30, 0x9F	; 159
     ba6:	ff e0       	ldi	r31, 0x0F	; 15
     ba8:	31 97       	sbiw	r30, 0x01	; 1
     baa:	f1 f7       	brne	.-4      	; 0xba8 <sleep_ms+0xa>
     bac:	00 c0       	rjmp	.+0      	; 0xbae <sleep_ms+0x10>
     bae:	00 00       	nop
		_delay_us(1);
	}
}

void sleep_ms(uint16_t ms){
	while(ms){
     bb0:	00 97       	sbiw	r24, 0x00	; 0
     bb2:	b9 f7       	brne	.-18     	; 0xba2 <sleep_ms+0x4>
     bb4:	08 95       	ret

00000bb6 <main>:
	E6_on;
	get_switch();
	}

int main(void)
{
     bb6:	cf 93       	push	r28
     bb8:	df 93       	push	r29
     bba:	cd b7       	in	r28, 0x3d	; 61
     bbc:	de b7       	in	r29, 0x3e	; 62
     bbe:	ca 5f       	subi	r28, 0xFA	; 250
     bc0:	d1 09       	sbc	r29, r1
     bc2:	0f b6       	in	r0, 0x3f	; 63
     bc4:	f8 94       	cli
     bc6:	de bf       	out	0x3e, r29	; 62
     bc8:	0f be       	out	0x3f, r0	; 63
     bca:	cd bf       	out	0x3d, r28	; 61
The type of x is clock_div_t.
*/
void clock_prescale_set(clock_div_t __x)
{
    uint8_t __tmp = _BV(CLKPCE);
    __asm__ __volatile__ (
     bcc:	80 e8       	ldi	r24, 0x80	; 128
     bce:	90 e0       	ldi	r25, 0x00	; 0
     bd0:	0f b6       	in	r0, 0x3f	; 63
     bd2:	f8 94       	cli
     bd4:	80 93 61 00 	sts	0x0061, r24
     bd8:	90 93 61 00 	sts	0x0061, r25
     bdc:	0f be       	out	0x3f, r0	; 63
	clock_prescale_set(clock_div_1);	//clock prescaler auf  1 =>  16MHz
	MCUCR = (1 << JTD);					//jtag ausschalten
     bde:	85 bf       	out	0x35, r24	; 53
	
	DDRE|=(1 << PE6); //debug led als ausgang
     be0:	6e 9a       	sbi	0x0d, 6	; 13
	DDRB = 0xff;//alle als ausgang zu treibern x+y
     be2:	8f ef       	ldi	r24, 0xFF	; 255
     be4:	84 b9       	out	0x04, r24	; 4
	DDRD |= (1 << DDD4) | (1 << DDD5)| (1 << DDD6)| (1 << DDD7); //ausgänge für z achse
     be6:	8a b1       	in	r24, 0x0a	; 10
     be8:	80 6f       	ori	r24, 0xF0	; 240
     bea:	8a b9       	out	0x0a, r24	; 10
	
	DDRC |= (1 << DDC7) ; //Pin C7 als PWM ausgang
     bec:	3f 9a       	sbi	0x07, 7	; 7
	DDRC |= (1 << DDC6) ; //Pin C6 als ENABLE/DISLABLE Stepper an L293D
     bee:	3e 9a       	sbi	0x07, 6	; 7
	
	
	
	adc_init();	//external_vref // siehe adc.h
     bf0:	0e 94 b9 02 	call	0x572	; 0x572 <adc_init>
	usb_init(); 
     bf4:	0e 94 86 0a 	call	0x150c	; 0x150c <usb_init>
	timer_init();
     bf8:	0e 94 e1 04 	call	0x9c2	; 0x9c2 <timer_init>
	sleep_ms(250);
     bfc:	8a ef       	ldi	r24, 0xFA	; 250
     bfe:	90 e0       	ldi	r25, 0x00	; 0
     c00:	0e 94 cf 05 	call	0xb9e	; 0xb9e <sleep_ms>
	readADC(0);//muss sein um einma ch0 auszuwählen		
     c04:	80 e0       	ldi	r24, 0x00	; 0
     c06:	0e 94 a3 01 	call	0x346	; 0x346 <readADC>
	enable_stepper;
     c0a:	46 9a       	sbi	0x08, 6	; 8
	//interupt0 test
	DDRD &= ~(1 << DDD0); // pin d0 als eingang (interrupt notaus)
     c0c:	50 98       	cbi	0x0a, 0	; 10
	PORTD |= (1 << PD0); // pullup aktiviern
     c0e:	58 9a       	sbi	0x0b, 0	; 11
	EICRA &= ~(  (1<<ISC00) | (1<<ISC01)  ); // sets the interrupt type bei low interrupt auslösen
     c10:	e9 e6       	ldi	r30, 0x69	; 105
     c12:	f0 e0       	ldi	r31, 0x00	; 0
     c14:	80 81       	ld	r24, Z
     c16:	8c 7f       	andi	r24, 0xFC	; 252
     c18:	80 83       	st	Z, r24
	sleep_ms(10);
     c1a:	8a e0       	ldi	r24, 0x0A	; 10
     c1c:	90 e0       	ldi	r25, 0x00	; 0
     c1e:	0e 94 cf 05 	call	0xb9e	; 0xb9e <sleep_ms>
	EIMSK |= (1<<INT0); // activiern des interrupts
     c22:	e8 9a       	sbi	0x1d, 0	; 29
	sleep_ms(10);
     c24:	8a e0       	ldi	r24, 0x0A	; 10
     c26:	90 e0       	ldi	r25, 0x00	; 0
     c28:	0e 94 cf 05 	call	0xb9e	; 0xb9e <sleep_ms>
	char inputbuffer[250]={0};
     c2c:	fe 01       	movw	r30, r28
     c2e:	31 96       	adiw	r30, 0x01	; 1
     c30:	8a ef       	ldi	r24, 0xFA	; 250
     c32:	df 01       	movw	r26, r30
     c34:	1d 92       	st	X+, r1
     c36:	8a 95       	dec	r24
     c38:	e9 f7       	brne	.-6      	; 0xc34 <main+0x7e>
	uint16_t counter = 0;
     c3a:	00 e0       	ldi	r16, 0x00	; 0
     c3c:	10 e0       	ldi	r17, 0x00	; 0
	
while(1)   
 {
	if (usb_serial_available())
	 {
	  inputbuffer[counter]= usb_serial_getchar();
     c3e:	7f 01       	movw	r14, r30
	  if ( (counter>= 20) || (inputbuffer[counter-1]==13) ) //sind 20 zeichern erreicht oder enter gerückt
	   {
		inputbuffer[counter-1]='\0'; //enter entfernen und string terminnieren
		
		 cmd_handler(inputbuffer);
		 memset	(&inputbuffer,0,250);//string leeren
     c40:	0f 2e       	mov	r0, r31
     c42:	fa ef       	ldi	r31, 0xFA	; 250
     c44:	bf 2e       	mov	r11, r31
     c46:	f0 2d       	mov	r31, r0
		counter =0; //zähler zurücksetzten string soll wieder ab 0 gefüllt werden
     c48:	c1 2c       	mov	r12, r1
     c4a:	d1 2c       	mov	r13, r1
     c4c:	01 c0       	rjmp	.+2      	; 0xc50 <main+0x9a>
	if (usb_serial_available())
	 {
	  inputbuffer[counter]= usb_serial_getchar();
	  usb_serial_putchar(inputbuffer[counter]);
	  usb_serial_flush_input();
	  counter++;
     c4e:	8c 01       	movw	r16, r24
	char inputbuffer[250]={0};
	uint16_t counter = 0;
	
while(1)   
 {
	if (usb_serial_available())
     c50:	0e 94 cb 0a 	call	0x1596	; 0x1596 <usb_serial_available>
     c54:	88 23       	and	r24, r24
     c56:	e1 f3       	breq	.-8      	; 0xc50 <main+0x9a>
	 {
	  inputbuffer[counter]= usb_serial_getchar();
     c58:	0e 94 9f 0a 	call	0x153e	; 0x153e <usb_serial_getchar>
     c5c:	f7 01       	movw	r30, r14
     c5e:	e0 0f       	add	r30, r16
     c60:	f1 1f       	adc	r31, r17
     c62:	80 83       	st	Z, r24
	  usb_serial_putchar(inputbuffer[counter]);
     c64:	0e 94 fb 0a 	call	0x15f6	; 0x15f6 <usb_serial_putchar>
	  usb_serial_flush_input();
     c68:	0e 94 e5 0a 	call	0x15ca	; 0x15ca <usb_serial_flush_input>
	  counter++;
     c6c:	c8 01       	movw	r24, r16
     c6e:	01 96       	adiw	r24, 0x01	; 1
	  if ( (counter>= 20) || (inputbuffer[counter-1]==13) ) //sind 20 zeichern erreicht oder enter gerückt
     c70:	84 31       	cpi	r24, 0x14	; 20
     c72:	91 05       	cpc	r25, r1
     c74:	30 f4       	brcc	.+12     	; 0xc82 <main+0xcc>
     c76:	f7 01       	movw	r30, r14
     c78:	e0 0f       	add	r30, r16
     c7a:	f1 1f       	adc	r31, r17
     c7c:	20 81       	ld	r18, Z
     c7e:	2d 30       	cpi	r18, 0x0D	; 13
     c80:	31 f7       	brne	.-52     	; 0xc4e <main+0x98>
	   {
		inputbuffer[counter-1]='\0'; //enter entfernen und string terminnieren
     c82:	f7 01       	movw	r30, r14
     c84:	e0 0f       	add	r30, r16
     c86:	f1 1f       	adc	r31, r17
     c88:	10 82       	st	Z, r1
		
		 cmd_handler(inputbuffer);
     c8a:	c7 01       	movw	r24, r14
     c8c:	0e 94 c6 03 	call	0x78c	; 0x78c <cmd_handler>
		 memset	(&inputbuffer,0,250);//string leeren
     c90:	f7 01       	movw	r30, r14
     c92:	8b 2d       	mov	r24, r11
     c94:	11 92       	st	Z+, r1
     c96:	8a 95       	dec	r24
     c98:	e9 f7       	brne	.-6      	; 0xc94 <main+0xde>
		counter =0; //zähler zurücksetzten string soll wieder ab 0 gefüllt werden
     c9a:	86 01       	movw	r16, r12
     c9c:	d9 cf       	rjmp	.-78     	; 0xc50 <main+0x9a>

00000c9e <bootloader>:
	}
}

void bootloader (void)
{
	MCUCR  |=  (1 << IVCE);  //IVCE  = 1		//register für restret
     c9e:	85 b7       	in	r24, 0x35	; 53
     ca0:	81 60       	ori	r24, 0x01	; 1
     ca2:	85 bf       	out	0x35, r24	; 53
	MCUCR  |=  (1 << IVSEL); //IVSEL = 1		//register für restret
     ca4:	85 b7       	in	r24, 0x35	; 53
     ca6:	82 60       	ori	r24, 0x02	; 2
     ca8:	85 bf       	out	0x35, r24	; 53
	TIMSK0 = 0;             //Timer-Interrupt ausschalten
     caa:	10 92 6e 00 	sts	0x006E, r1
	TIMSK1 = 0;				//noch ein Timer-Interrupt ausschalten
     cae:	10 92 6f 00 	sts	0x006F, r1
	TIMSK4 = 0;				//und noch einer
     cb2:	10 92 72 00 	sts	0x0072, r1
	sleep_ms(500);
     cb6:	84 ef       	ldi	r24, 0xF4	; 244
     cb8:	91 e0       	ldi	r25, 0x01	; 1
     cba:	0e 94 cf 05 	call	0xb9e	; 0xb9e <sleep_ms>
	asm volatile ("jmp 0x3800");
     cbe:	0c 94 00 1c 	jmp	0x3800	; 0x3800 <__data_load_end+0x16e8>
     cc2:	08 95       	ret

00000cc4 <get_switch>:
}


uint8_t get_switch(void) //lese adc und ermittle welche taste gerückt wurde
{
	uint16_t input = readADC(1);
     cc4:	81 e0       	ldi	r24, 0x01	; 1
     cc6:	0e 94 a3 01 	call	0x346	; 0x346 <readADC>
451	555
556	680
681	810
811	933
*/
		if (input>= 67 && input <= 195) //200 bis 600
     cca:	9c 01       	movw	r18, r24
     ccc:	23 54       	subi	r18, 0x43	; 67
     cce:	31 09       	sbc	r19, r1
     cd0:	21 38       	cpi	r18, 0x81	; 129
     cd2:	31 05       	cpc	r19, r1
     cd4:	30 f4       	brcc	.+12     	; 0xce2 <get_switch+0x1e>
			{usb_send_str("\r\nbutton 1");return 1;}	
     cd6:	83 e8       	ldi	r24, 0x83	; 131
     cd8:	95 e0       	ldi	r25, 0x05	; 5
     cda:	0e 94 1d 0d 	call	0x1a3a	; 0x1a3a <usb_send_str>
     cde:	81 e0       	ldi	r24, 0x01	; 1
     ce0:	08 95       	ret
		else if (input>= 201 && input <= 325) //601 bis 750
     ce2:	9c 01       	movw	r18, r24
     ce4:	29 5c       	subi	r18, 0xC9	; 201
     ce6:	31 09       	sbc	r19, r1
     ce8:	2d 37       	cpi	r18, 0x7D	; 125
     cea:	31 05       	cpc	r19, r1
     cec:	30 f4       	brcc	.+12     	; 0xcfa <get_switch+0x36>
			{usb_send_str("\r\nbutton 2");return 2;}
     cee:	8e e8       	ldi	r24, 0x8E	; 142
     cf0:	95 e0       	ldi	r25, 0x05	; 5
     cf2:	0e 94 1d 0d 	call	0x1a3a	; 0x1a3a <usb_send_str>
     cf6:	82 e0       	ldi	r24, 0x02	; 2
     cf8:	08 95       	ret
		else if (input>= 327 && input <= 450) //751 bis 1024
     cfa:	9c 01       	movw	r18, r24
     cfc:	27 54       	subi	r18, 0x47	; 71
     cfe:	31 40       	sbci	r19, 0x01	; 1
     d00:	2c 37       	cpi	r18, 0x7C	; 124
     d02:	31 05       	cpc	r19, r1
     d04:	30 f4       	brcc	.+12     	; 0xd12 <get_switch+0x4e>
			{usb_send_str("\r\nbutton 3");return 3;}
     d06:	89 e9       	ldi	r24, 0x99	; 153
     d08:	95 e0       	ldi	r25, 0x05	; 5
     d0a:	0e 94 1d 0d 	call	0x1a3a	; 0x1a3a <usb_send_str>
     d0e:	83 e0       	ldi	r24, 0x03	; 3
     d10:	08 95       	ret
		else if (input>= 451 && input <= 555) //751 bis 1024
     d12:	9c 01       	movw	r18, r24
     d14:	23 5c       	subi	r18, 0xC3	; 195
     d16:	31 40       	sbci	r19, 0x01	; 1
     d18:	29 36       	cpi	r18, 0x69	; 105
     d1a:	31 05       	cpc	r19, r1
     d1c:	30 f4       	brcc	.+12     	; 0xd2a <get_switch+0x66>
			{usb_send_str("\r\nbutton 4");return 4;}
     d1e:	84 ea       	ldi	r24, 0xA4	; 164
     d20:	95 e0       	ldi	r25, 0x05	; 5
     d22:	0e 94 1d 0d 	call	0x1a3a	; 0x1a3a <usb_send_str>
     d26:	84 e0       	ldi	r24, 0x04	; 4
     d28:	08 95       	ret
		else if (input>= 556 && input <= 680) //751 bis 1024
     d2a:	9c 01       	movw	r18, r24
     d2c:	2c 52       	subi	r18, 0x2C	; 44
     d2e:	32 40       	sbci	r19, 0x02	; 2
     d30:	2d 37       	cpi	r18, 0x7D	; 125
     d32:	31 05       	cpc	r19, r1
     d34:	30 f4       	brcc	.+12     	; 0xd42 <get_switch+0x7e>
			{usb_send_str("\r\nbutton 5");return 5;}
     d36:	8f ea       	ldi	r24, 0xAF	; 175
     d38:	95 e0       	ldi	r25, 0x05	; 5
     d3a:	0e 94 1d 0d 	call	0x1a3a	; 0x1a3a <usb_send_str>
     d3e:	85 e0       	ldi	r24, 0x05	; 5
     d40:	08 95       	ret
		else if (input>= 681 && input <= 810) //751 bis 1024
     d42:	9c 01       	movw	r18, r24
     d44:	29 5a       	subi	r18, 0xA9	; 169
     d46:	32 40       	sbci	r19, 0x02	; 2
     d48:	22 38       	cpi	r18, 0x82	; 130
     d4a:	31 05       	cpc	r19, r1
     d4c:	30 f4       	brcc	.+12     	; 0xd5a <get_switch+0x96>
			{usb_send_str("\r\nbutton 6");return 6;}
     d4e:	8a eb       	ldi	r24, 0xBA	; 186
     d50:	95 e0       	ldi	r25, 0x05	; 5
     d52:	0e 94 1d 0d 	call	0x1a3a	; 0x1a3a <usb_send_str>
     d56:	86 e0       	ldi	r24, 0x06	; 6
     d58:	08 95       	ret
		else if (input>= 811 && input <= 933) //751 bis 1024
     d5a:	8b 52       	subi	r24, 0x2B	; 43
     d5c:	93 40       	sbci	r25, 0x03	; 3
     d5e:	8b 37       	cpi	r24, 0x7B	; 123
     d60:	91 05       	cpc	r25, r1
     d62:	30 f4       	brcc	.+12     	; 0xd70 <get_switch+0xac>
			{usb_send_str("\r\nbutton 7");return 7;}									
     d64:	85 ec       	ldi	r24, 0xC5	; 197
     d66:	95 e0       	ldi	r25, 0x05	; 5
     d68:	0e 94 1d 0d 	call	0x1a3a	; 0x1a3a <usb_send_str>
     d6c:	87 e0       	ldi	r24, 0x07	; 7
     d6e:	08 95       	ret
				
				
		else
			{usb_send_str("\r\nunable to read button");return 0;}
     d70:	80 ed       	ldi	r24, 0xD0	; 208
     d72:	95 e0       	ldi	r25, 0x05	; 5
     d74:	0e 94 1d 0d 	call	0x1a3a	; 0x1a3a <usb_send_str>
     d78:	80 e0       	ldi	r24, 0x00	; 0

}
     d7a:	08 95       	ret

00000d7c <__vector_1>:


#include "main.h"

ISR(INT0_vect) 
	{
     d7c:	1f 92       	push	r1
     d7e:	0f 92       	push	r0
     d80:	0f b6       	in	r0, 0x3f	; 63
     d82:	0f 92       	push	r0
     d84:	11 24       	eor	r1, r1
     d86:	2f 93       	push	r18
     d88:	3f 93       	push	r19
     d8a:	4f 93       	push	r20
     d8c:	5f 93       	push	r21
     d8e:	6f 93       	push	r22
     d90:	7f 93       	push	r23
     d92:	8f 93       	push	r24
     d94:	9f 93       	push	r25
     d96:	af 93       	push	r26
     d98:	bf 93       	push	r27
     d9a:	ef 93       	push	r30
     d9c:	ff 93       	push	r31
	// interrupt code goes here	
	disable_stepper;
     d9e:	46 98       	cbi	0x08, 6	; 8
	set_tool_speed(0);//stop tool
     da0:	80 e0       	ldi	r24, 0x00	; 0
     da2:	90 e0       	ldi	r25, 0x00	; 0
     da4:	0e 94 67 0a 	call	0x14ce	; 0x14ce <set_tool_speed>
	steps_x=steps_y=steps_z=0; //fahr nirgens hin
     da8:	10 92 f0 05 	sts	0x05F0, r1
     dac:	10 92 f1 05 	sts	0x05F1, r1
     db0:	10 92 f2 05 	sts	0x05F2, r1
     db4:	10 92 f3 05 	sts	0x05F3, r1
     db8:	10 92 f4 05 	sts	0x05F4, r1
     dbc:	10 92 f5 05 	sts	0x05F5, r1
     dc0:	10 92 f6 05 	sts	0x05F6, r1
     dc4:	10 92 f7 05 	sts	0x05F7, r1
     dc8:	10 92 f8 05 	sts	0x05F8, r1
     dcc:	10 92 f9 05 	sts	0x05F9, r1
     dd0:	10 92 fa 05 	sts	0x05FA, r1
     dd4:	10 92 fb 05 	sts	0x05FB, r1
	//usb_send_str("NOTAUS\r\n");	
	E6_on;
     dd8:	76 9a       	sbi	0x0e, 6	; 14
	get_switch();
     dda:	0e 94 62 06 	call	0xcc4	; 0xcc4 <get_switch>
	}
     dde:	ff 91       	pop	r31
     de0:	ef 91       	pop	r30
     de2:	bf 91       	pop	r27
     de4:	af 91       	pop	r26
     de6:	9f 91       	pop	r25
     de8:	8f 91       	pop	r24
     dea:	7f 91       	pop	r23
     dec:	6f 91       	pop	r22
     dee:	5f 91       	pop	r21
     df0:	4f 91       	pop	r20
     df2:	3f 91       	pop	r19
     df4:	2f 91       	pop	r18
     df6:	0f 90       	pop	r0
     df8:	0f be       	out	0x3f, r0	; 63
     dfa:	0f 90       	pop	r0
     dfc:	1f 90       	pop	r1
     dfe:	18 95       	reti

00000e00 <stepper_x_forward>:
//////////////////////////////////////////////////////////////////////////////////////
void stepper_x_forward (void)  // char stepper = x, y oder z
{
			//stepper_x_pos ist momentane real position des stepper
			//abhängig von der realposition den nächsten schritt vorwärts ermitteln 
			 switch (stepper_x_pos)  
     e00:	80 91 02 01 	lds	r24, 0x0102
     e04:	82 30       	cpi	r24, 0x02	; 2
     e06:	99 f0       	breq	.+38     	; 0xe2e <stepper_x_forward+0x2e>
     e08:	18 f4       	brcc	.+6      	; 0xe10 <stepper_x_forward+0x10>
     e0a:	81 30       	cpi	r24, 0x01	; 1
     e0c:	59 f5       	brne	.+86     	; 0xe64 <stepper_x_forward+0x64>
     e0e:	05 c0       	rjmp	.+10     	; 0xe1a <stepper_x_forward+0x1a>
     e10:	83 30       	cpi	r24, 0x03	; 3
     e12:	b9 f0       	breq	.+46     	; 0xe42 <stepper_x_forward+0x42>
     e14:	84 30       	cpi	r24, 0x04	; 4
     e16:	31 f5       	brne	.+76     	; 0xe64 <stepper_x_forward+0x64>
     e18:	1e c0       	rjmp	.+60     	; 0xe56 <stepper_x_forward+0x56>
			 {
				 case 1: //position ist 1 soll-schritt ist 2
				 {step2_x  stepper_x_pos++; break;}
     e1a:	28 98       	cbi	0x05, 0	; 5
     e1c:	29 9a       	sbi	0x05, 1	; 5
     e1e:	2a 9a       	sbi	0x05, 2	; 5
     e20:	2b 98       	cbi	0x05, 3	; 5
     e22:	80 91 02 01 	lds	r24, 0x0102
     e26:	8f 5f       	subi	r24, 0xFF	; 255
     e28:	80 93 02 01 	sts	0x0102, r24
     e2c:	08 95       	ret
				 case 2://position ist 2 soll-schritt ist 3
				 {step3_x  stepper_x_pos++; break;}
     e2e:	28 98       	cbi	0x05, 0	; 5
     e30:	29 98       	cbi	0x05, 1	; 5
     e32:	2a 9a       	sbi	0x05, 2	; 5
     e34:	2b 9a       	sbi	0x05, 3	; 5
     e36:	80 91 02 01 	lds	r24, 0x0102
     e3a:	8f 5f       	subi	r24, 0xFF	; 255
     e3c:	80 93 02 01 	sts	0x0102, r24
     e40:	08 95       	ret
				 case 3://position ist 3 soll-schritt ist 4
				 {step4_x  stepper_x_pos++; break;}
     e42:	28 9a       	sbi	0x05, 0	; 5
     e44:	29 98       	cbi	0x05, 1	; 5
     e46:	2a 98       	cbi	0x05, 2	; 5
     e48:	2b 9a       	sbi	0x05, 3	; 5
     e4a:	80 91 02 01 	lds	r24, 0x0102
     e4e:	8f 5f       	subi	r24, 0xFF	; 255
     e50:	80 93 02 01 	sts	0x0102, r24
     e54:	08 95       	ret
				 case 4://position ist 4 soll-schritt ist 1
				 {step1_x stepper_x_pos=1; break;}
     e56:	28 9a       	sbi	0x05, 0	; 5
     e58:	29 9a       	sbi	0x05, 1	; 5
     e5a:	2a 98       	cbi	0x05, 2	; 5
     e5c:	2b 98       	cbi	0x05, 3	; 5
     e5e:	81 e0       	ldi	r24, 0x01	; 1
     e60:	80 93 02 01 	sts	0x0102, r24
     e64:	08 95       	ret

00000e66 <stepper_x_backward>:

void stepper_x_backward (void) //  stepper x    1 step rückwerts
{
	//stepper_x_pos ist momentane real position des stepper
	//abhängig von der realposition den nächsten schritt vorwärts ermitteln
	switch (stepper_x_pos)
     e66:	80 91 02 01 	lds	r24, 0x0102
     e6a:	82 30       	cpi	r24, 0x02	; 2
     e6c:	89 f0       	breq	.+34     	; 0xe90 <stepper_x_backward+0x2a>
     e6e:	18 f4       	brcc	.+6      	; 0xe76 <stepper_x_backward+0x10>
     e70:	81 30       	cpi	r24, 0x01	; 1
     e72:	59 f5       	brne	.+86     	; 0xeca <stepper_x_backward+0x64>
     e74:	05 c0       	rjmp	.+10     	; 0xe80 <stepper_x_backward+0x1a>
     e76:	83 30       	cpi	r24, 0x03	; 3
     e78:	a9 f0       	breq	.+42     	; 0xea4 <stepper_x_backward+0x3e>
     e7a:	84 30       	cpi	r24, 0x04	; 4
     e7c:	31 f5       	brne	.+76     	; 0xeca <stepper_x_backward+0x64>
     e7e:	1c c0       	rjmp	.+56     	; 0xeb8 <stepper_x_backward+0x52>
	{
		case 1: //position ist 1 soll-schritt ist 4
		{step4_x  stepper_x_pos=4; break;}
     e80:	28 9a       	sbi	0x05, 0	; 5
     e82:	29 98       	cbi	0x05, 1	; 5
     e84:	2a 98       	cbi	0x05, 2	; 5
     e86:	2b 9a       	sbi	0x05, 3	; 5
     e88:	84 e0       	ldi	r24, 0x04	; 4
     e8a:	80 93 02 01 	sts	0x0102, r24
     e8e:	08 95       	ret
		case 2://position ist 2 soll-schritt ist 1
		{step1_x  stepper_x_pos--; break;}
     e90:	28 9a       	sbi	0x05, 0	; 5
     e92:	29 9a       	sbi	0x05, 1	; 5
     e94:	2a 98       	cbi	0x05, 2	; 5
     e96:	2b 98       	cbi	0x05, 3	; 5
     e98:	80 91 02 01 	lds	r24, 0x0102
     e9c:	81 50       	subi	r24, 0x01	; 1
     e9e:	80 93 02 01 	sts	0x0102, r24
     ea2:	08 95       	ret
		case 3://position ist 3 soll-schritt ist 2
		{step2_x  stepper_x_pos--; break;}
     ea4:	28 98       	cbi	0x05, 0	; 5
     ea6:	29 9a       	sbi	0x05, 1	; 5
     ea8:	2a 9a       	sbi	0x05, 2	; 5
     eaa:	2b 98       	cbi	0x05, 3	; 5
     eac:	80 91 02 01 	lds	r24, 0x0102
     eb0:	81 50       	subi	r24, 0x01	; 1
     eb2:	80 93 02 01 	sts	0x0102, r24
     eb6:	08 95       	ret
		case 4://position ist 4 soll-schritt ist 3
		{step3_x stepper_x_pos--; break;}
     eb8:	28 98       	cbi	0x05, 0	; 5
     eba:	29 98       	cbi	0x05, 1	; 5
     ebc:	2a 9a       	sbi	0x05, 2	; 5
     ebe:	2b 9a       	sbi	0x05, 3	; 5
     ec0:	80 91 02 01 	lds	r24, 0x0102
     ec4:	81 50       	subi	r24, 0x01	; 1
     ec6:	80 93 02 01 	sts	0x0102, r24
     eca:	08 95       	ret

00000ecc <stepper_x_move>:
		break;
	}
}

void stepper_x_move (int32_t steps) // +32767 bis -32768  steps
{
     ecc:	0f 93       	push	r16
     ece:	1f 93       	push	r17
	steps_x +=  steps; //sollschritte zu akutuelle schritte dazu addieren
     ed0:	00 91 f8 05 	lds	r16, 0x05F8
     ed4:	10 91 f9 05 	lds	r17, 0x05F9
     ed8:	20 91 fa 05 	lds	r18, 0x05FA
     edc:	30 91 fb 05 	lds	r19, 0x05FB
     ee0:	dc 01       	movw	r26, r24
     ee2:	cb 01       	movw	r24, r22
     ee4:	80 0f       	add	r24, r16
     ee6:	91 1f       	adc	r25, r17
     ee8:	a2 1f       	adc	r26, r18
     eea:	b3 1f       	adc	r27, r19
     eec:	80 93 f8 05 	sts	0x05F8, r24
     ef0:	90 93 f9 05 	sts	0x05F9, r25
     ef4:	a0 93 fa 05 	sts	0x05FA, r26
     ef8:	b0 93 fb 05 	sts	0x05FB, r27
}
     efc:	1f 91       	pop	r17
     efe:	0f 91       	pop	r16
     f00:	08 95       	ret

00000f02 <stepper_y_forward>:

void stepper_y_forward (void)  // char stepper = x, y oder z
{
	//stepper_x_pos ist momentane real position des stepper
	//abhängig von der realposition den nächsten schritt vorwärts ermitteln
	switch (stepper_y_pos)
     f02:	80 91 01 01 	lds	r24, 0x0101
     f06:	82 30       	cpi	r24, 0x02	; 2
     f08:	99 f0       	breq	.+38     	; 0xf30 <stepper_y_forward+0x2e>
     f0a:	18 f4       	brcc	.+6      	; 0xf12 <stepper_y_forward+0x10>
     f0c:	81 30       	cpi	r24, 0x01	; 1
     f0e:	59 f5       	brne	.+86     	; 0xf66 <stepper_y_forward+0x64>
     f10:	05 c0       	rjmp	.+10     	; 0xf1c <stepper_y_forward+0x1a>
     f12:	83 30       	cpi	r24, 0x03	; 3
     f14:	b9 f0       	breq	.+46     	; 0xf44 <stepper_y_forward+0x42>
     f16:	84 30       	cpi	r24, 0x04	; 4
     f18:	31 f5       	brne	.+76     	; 0xf66 <stepper_y_forward+0x64>
     f1a:	1e c0       	rjmp	.+60     	; 0xf58 <stepper_y_forward+0x56>
	{
		case 1: //position ist 1 soll-schritt ist 2
		{step2_y  stepper_y_pos++; break;}
     f1c:	2c 98       	cbi	0x05, 4	; 5
     f1e:	2d 9a       	sbi	0x05, 5	; 5
     f20:	2e 9a       	sbi	0x05, 6	; 5
     f22:	2f 98       	cbi	0x05, 7	; 5
     f24:	80 91 01 01 	lds	r24, 0x0101
     f28:	8f 5f       	subi	r24, 0xFF	; 255
     f2a:	80 93 01 01 	sts	0x0101, r24
     f2e:	08 95       	ret
		case 2://position ist 2 soll-schritt ist 3
		{step3_y  stepper_y_pos++; break;}
     f30:	2c 98       	cbi	0x05, 4	; 5
     f32:	2d 98       	cbi	0x05, 5	; 5
     f34:	2e 9a       	sbi	0x05, 6	; 5
     f36:	2f 9a       	sbi	0x05, 7	; 5
     f38:	80 91 01 01 	lds	r24, 0x0101
     f3c:	8f 5f       	subi	r24, 0xFF	; 255
     f3e:	80 93 01 01 	sts	0x0101, r24
     f42:	08 95       	ret
		case 3://position ist 3 soll-schritt ist 4
		{step4_y  stepper_y_pos++; break;}
     f44:	2c 9a       	sbi	0x05, 4	; 5
     f46:	2d 98       	cbi	0x05, 5	; 5
     f48:	2e 98       	cbi	0x05, 6	; 5
     f4a:	2f 9a       	sbi	0x05, 7	; 5
     f4c:	80 91 01 01 	lds	r24, 0x0101
     f50:	8f 5f       	subi	r24, 0xFF	; 255
     f52:	80 93 01 01 	sts	0x0101, r24
     f56:	08 95       	ret
		case 4://position ist 4 soll-schritt ist 1
		{step1_y stepper_y_pos=1; break;}
     f58:	2c 9a       	sbi	0x05, 4	; 5
     f5a:	2d 9a       	sbi	0x05, 5	; 5
     f5c:	2e 98       	cbi	0x05, 6	; 5
     f5e:	2f 98       	cbi	0x05, 7	; 5
     f60:	81 e0       	ldi	r24, 0x01	; 1
     f62:	80 93 01 01 	sts	0x0101, r24
     f66:	08 95       	ret

00000f68 <stepper_y_backward>:
}
void stepper_y_backward (void) //  stepper x    1 step rückwerts
{
	//stepper_x_pos ist momentane real position des stepper
	//abhängig von der realposition den nächsten schritt vorwärts ermitteln
	switch (stepper_y_pos)
     f68:	80 91 01 01 	lds	r24, 0x0101
     f6c:	82 30       	cpi	r24, 0x02	; 2
     f6e:	89 f0       	breq	.+34     	; 0xf92 <stepper_y_backward+0x2a>
     f70:	18 f4       	brcc	.+6      	; 0xf78 <stepper_y_backward+0x10>
     f72:	81 30       	cpi	r24, 0x01	; 1
     f74:	59 f5       	brne	.+86     	; 0xfcc <stepper_y_backward+0x64>
     f76:	05 c0       	rjmp	.+10     	; 0xf82 <stepper_y_backward+0x1a>
     f78:	83 30       	cpi	r24, 0x03	; 3
     f7a:	a9 f0       	breq	.+42     	; 0xfa6 <stepper_y_backward+0x3e>
     f7c:	84 30       	cpi	r24, 0x04	; 4
     f7e:	31 f5       	brne	.+76     	; 0xfcc <stepper_y_backward+0x64>
     f80:	1c c0       	rjmp	.+56     	; 0xfba <stepper_y_backward+0x52>
	{
		case 1: //position ist 1 soll-schritt ist 4
		{step4_y  stepper_y_pos=4; break;}
     f82:	2c 9a       	sbi	0x05, 4	; 5
     f84:	2d 98       	cbi	0x05, 5	; 5
     f86:	2e 98       	cbi	0x05, 6	; 5
     f88:	2f 9a       	sbi	0x05, 7	; 5
     f8a:	84 e0       	ldi	r24, 0x04	; 4
     f8c:	80 93 01 01 	sts	0x0101, r24
     f90:	08 95       	ret
		case 2://position ist 2 soll-schritt ist 1
		{step1_y  stepper_y_pos--; break;}
     f92:	2c 9a       	sbi	0x05, 4	; 5
     f94:	2d 9a       	sbi	0x05, 5	; 5
     f96:	2e 98       	cbi	0x05, 6	; 5
     f98:	2f 98       	cbi	0x05, 7	; 5
     f9a:	80 91 01 01 	lds	r24, 0x0101
     f9e:	81 50       	subi	r24, 0x01	; 1
     fa0:	80 93 01 01 	sts	0x0101, r24
     fa4:	08 95       	ret
		case 3://position ist 3 soll-schritt ist 2
		{step2_y  stepper_y_pos--; break;}
     fa6:	2c 98       	cbi	0x05, 4	; 5
     fa8:	2d 9a       	sbi	0x05, 5	; 5
     faa:	2e 9a       	sbi	0x05, 6	; 5
     fac:	2f 98       	cbi	0x05, 7	; 5
     fae:	80 91 01 01 	lds	r24, 0x0101
     fb2:	81 50       	subi	r24, 0x01	; 1
     fb4:	80 93 01 01 	sts	0x0101, r24
     fb8:	08 95       	ret
		case 4://position ist 4 soll-schritt ist 3
		{step3_y stepper_y_pos--; break;}
     fba:	2c 98       	cbi	0x05, 4	; 5
     fbc:	2d 98       	cbi	0x05, 5	; 5
     fbe:	2e 9a       	sbi	0x05, 6	; 5
     fc0:	2f 9a       	sbi	0x05, 7	; 5
     fc2:	80 91 01 01 	lds	r24, 0x0101
     fc6:	81 50       	subi	r24, 0x01	; 1
     fc8:	80 93 01 01 	sts	0x0101, r24
     fcc:	08 95       	ret

00000fce <stepper_y_move>:
		break;
	}
}

void stepper_y_move (int32_t steps) // +32767 bis -32768  steps
{
     fce:	0f 93       	push	r16
     fd0:	1f 93       	push	r17
	steps_y +=  steps; //sollschritte zu akutuelle schritte dazu addieren
     fd2:	00 91 f4 05 	lds	r16, 0x05F4
     fd6:	10 91 f5 05 	lds	r17, 0x05F5
     fda:	20 91 f6 05 	lds	r18, 0x05F6
     fde:	30 91 f7 05 	lds	r19, 0x05F7
     fe2:	dc 01       	movw	r26, r24
     fe4:	cb 01       	movw	r24, r22
     fe6:	80 0f       	add	r24, r16
     fe8:	91 1f       	adc	r25, r17
     fea:	a2 1f       	adc	r26, r18
     fec:	b3 1f       	adc	r27, r19
     fee:	80 93 f4 05 	sts	0x05F4, r24
     ff2:	90 93 f5 05 	sts	0x05F5, r25
     ff6:	a0 93 f6 05 	sts	0x05F6, r26
     ffa:	b0 93 f7 05 	sts	0x05F7, r27
}
     ffe:	1f 91       	pop	r17
    1000:	0f 91       	pop	r16
    1002:	08 95       	ret

00001004 <stepper_z_forward>:

void stepper_z_forward (void)  // char stepper = x, y oder z
{
	//stepper_x_pos ist momentane real position des stepper
	//abhängig von der realposition den nächsten schritt vorwärts ermitteln
	switch (stepper_z_pos)
    1004:	80 91 00 01 	lds	r24, 0x0100
    1008:	82 30       	cpi	r24, 0x02	; 2
    100a:	99 f0       	breq	.+38     	; 0x1032 <stepper_z_forward+0x2e>
    100c:	18 f4       	brcc	.+6      	; 0x1014 <stepper_z_forward+0x10>
    100e:	81 30       	cpi	r24, 0x01	; 1
    1010:	59 f5       	brne	.+86     	; 0x1068 <stepper_z_forward+0x64>
    1012:	05 c0       	rjmp	.+10     	; 0x101e <stepper_z_forward+0x1a>
    1014:	83 30       	cpi	r24, 0x03	; 3
    1016:	b9 f0       	breq	.+46     	; 0x1046 <stepper_z_forward+0x42>
    1018:	84 30       	cpi	r24, 0x04	; 4
    101a:	31 f5       	brne	.+76     	; 0x1068 <stepper_z_forward+0x64>
    101c:	1e c0       	rjmp	.+60     	; 0x105a <stepper_z_forward+0x56>
	{
		case 1: //position ist 1 soll-schritt ist 2
		{step2_z  stepper_z_pos++; break;}
    101e:	5c 98       	cbi	0x0b, 4	; 11
    1020:	5d 9a       	sbi	0x0b, 5	; 11
    1022:	5e 9a       	sbi	0x0b, 6	; 11
    1024:	5f 98       	cbi	0x0b, 7	; 11
    1026:	80 91 00 01 	lds	r24, 0x0100
    102a:	8f 5f       	subi	r24, 0xFF	; 255
    102c:	80 93 00 01 	sts	0x0100, r24
    1030:	08 95       	ret
		case 2://position ist 2 soll-schritt ist 3
		{step3_z  stepper_z_pos++; break;}
    1032:	5c 98       	cbi	0x0b, 4	; 11
    1034:	5d 98       	cbi	0x0b, 5	; 11
    1036:	5e 9a       	sbi	0x0b, 6	; 11
    1038:	5f 9a       	sbi	0x0b, 7	; 11
    103a:	80 91 00 01 	lds	r24, 0x0100
    103e:	8f 5f       	subi	r24, 0xFF	; 255
    1040:	80 93 00 01 	sts	0x0100, r24
    1044:	08 95       	ret
		case 3://position ist 3 soll-schritt ist 4
		{step4_z  stepper_z_pos++; break;}
    1046:	5c 9a       	sbi	0x0b, 4	; 11
    1048:	5d 98       	cbi	0x0b, 5	; 11
    104a:	5e 98       	cbi	0x0b, 6	; 11
    104c:	5f 9a       	sbi	0x0b, 7	; 11
    104e:	80 91 00 01 	lds	r24, 0x0100
    1052:	8f 5f       	subi	r24, 0xFF	; 255
    1054:	80 93 00 01 	sts	0x0100, r24
    1058:	08 95       	ret
		case 4://position ist 4 soll-schritt ist 1
		{step1_z stepper_z_pos=1; break;}
    105a:	5c 9a       	sbi	0x0b, 4	; 11
    105c:	5d 9a       	sbi	0x0b, 5	; 11
    105e:	5e 98       	cbi	0x0b, 6	; 11
    1060:	5f 98       	cbi	0x0b, 7	; 11
    1062:	81 e0       	ldi	r24, 0x01	; 1
    1064:	80 93 00 01 	sts	0x0100, r24
    1068:	08 95       	ret

0000106a <stepper_z_backward>:
}
void stepper_z_backward (void) //  stepper x    1 step rückwerts
{
	//stepper_x_pos ist momentane real position des stepper
	//abhängig von der realposition den nächsten schritt vorwärts ermitteln
	switch (stepper_y_pos)
    106a:	80 91 01 01 	lds	r24, 0x0101
    106e:	82 30       	cpi	r24, 0x02	; 2
    1070:	89 f0       	breq	.+34     	; 0x1094 <stepper_z_backward+0x2a>
    1072:	18 f4       	brcc	.+6      	; 0x107a <stepper_z_backward+0x10>
    1074:	81 30       	cpi	r24, 0x01	; 1
    1076:	59 f5       	brne	.+86     	; 0x10ce <stepper_z_backward+0x64>
    1078:	05 c0       	rjmp	.+10     	; 0x1084 <stepper_z_backward+0x1a>
    107a:	83 30       	cpi	r24, 0x03	; 3
    107c:	a9 f0       	breq	.+42     	; 0x10a8 <stepper_z_backward+0x3e>
    107e:	84 30       	cpi	r24, 0x04	; 4
    1080:	31 f5       	brne	.+76     	; 0x10ce <stepper_z_backward+0x64>
    1082:	1c c0       	rjmp	.+56     	; 0x10bc <stepper_z_backward+0x52>
	{
		case 1: //position ist 1 soll-schritt ist 4
		{step4_z  stepper_z_pos=4; break;}
    1084:	5c 9a       	sbi	0x0b, 4	; 11
    1086:	5d 98       	cbi	0x0b, 5	; 11
    1088:	5e 98       	cbi	0x0b, 6	; 11
    108a:	5f 9a       	sbi	0x0b, 7	; 11
    108c:	84 e0       	ldi	r24, 0x04	; 4
    108e:	80 93 00 01 	sts	0x0100, r24
    1092:	08 95       	ret
		case 2://position ist 2 soll-schritt ist 1
		{step1_z  stepper_z_pos--; break;}
    1094:	5c 9a       	sbi	0x0b, 4	; 11
    1096:	5d 9a       	sbi	0x0b, 5	; 11
    1098:	5e 98       	cbi	0x0b, 6	; 11
    109a:	5f 98       	cbi	0x0b, 7	; 11
    109c:	80 91 00 01 	lds	r24, 0x0100
    10a0:	81 50       	subi	r24, 0x01	; 1
    10a2:	80 93 00 01 	sts	0x0100, r24
    10a6:	08 95       	ret
		case 3://position ist 3 soll-schritt ist 2
		{step2_z  stepper_z_pos--; break;}
    10a8:	5c 98       	cbi	0x0b, 4	; 11
    10aa:	5d 9a       	sbi	0x0b, 5	; 11
    10ac:	5e 9a       	sbi	0x0b, 6	; 11
    10ae:	5f 98       	cbi	0x0b, 7	; 11
    10b0:	80 91 00 01 	lds	r24, 0x0100
    10b4:	81 50       	subi	r24, 0x01	; 1
    10b6:	80 93 00 01 	sts	0x0100, r24
    10ba:	08 95       	ret
		case 4://position ist 4 soll-schritt ist 3
		{step3_z stepper_z_pos--; break;}
    10bc:	5c 98       	cbi	0x0b, 4	; 11
    10be:	5d 98       	cbi	0x0b, 5	; 11
    10c0:	5e 9a       	sbi	0x0b, 6	; 11
    10c2:	5f 9a       	sbi	0x0b, 7	; 11
    10c4:	80 91 00 01 	lds	r24, 0x0100
    10c8:	81 50       	subi	r24, 0x01	; 1
    10ca:	80 93 00 01 	sts	0x0100, r24
    10ce:	08 95       	ret

000010d0 <stepper_z_move>:
		break;
	}
}

void stepper_z_move (int32_t steps) // +32767 bis -32768  steps
{
    10d0:	0f 93       	push	r16
    10d2:	1f 93       	push	r17
	steps_z +=  steps; //sollschritte zu akutuelle schritte dazu addieren
    10d4:	00 91 f0 05 	lds	r16, 0x05F0
    10d8:	10 91 f1 05 	lds	r17, 0x05F1
    10dc:	20 91 f2 05 	lds	r18, 0x05F2
    10e0:	30 91 f3 05 	lds	r19, 0x05F3
    10e4:	dc 01       	movw	r26, r24
    10e6:	cb 01       	movw	r24, r22
    10e8:	80 0f       	add	r24, r16
    10ea:	91 1f       	adc	r25, r17
    10ec:	a2 1f       	adc	r26, r18
    10ee:	b3 1f       	adc	r27, r19
    10f0:	80 93 f0 05 	sts	0x05F0, r24
    10f4:	90 93 f1 05 	sts	0x05F1, r25
    10f8:	a0 93 f2 05 	sts	0x05F2, r26
    10fc:	b0 93 f3 05 	sts	0x05F3, r27
}
    1100:	1f 91       	pop	r17
    1102:	0f 91       	pop	r16
    1104:	08 95       	ret

00001106 <setPwmDuty>:
	TCCR4C = 0;
	setPeriod(freq);
}

void setPwmDuty(unsigned int duty) {
	unsigned long dutyCycle = pwmPeriod;
    1106:	20 91 fc 05 	lds	r18, 0x05FC
    110a:	30 91 fd 05 	lds	r19, 0x05FD
    110e:	40 91 fe 05 	lds	r20, 0x05FE
    1112:	50 91 ff 05 	lds	r21, 0x05FF
	dutyCycle *= duty;
    1116:	dc 01       	movw	r26, r24
    1118:	0e 94 71 0d 	call	0x1ae2	; 0x1ae2 <__muluhisi3>
	dutyCycle >>= 9;
    111c:	dc 01       	movw	r26, r24
    111e:	cb 01       	movw	r24, r22
    1120:	07 2e       	mov	r0, r23
    1122:	79 e0       	ldi	r23, 0x09	; 9
    1124:	b6 95       	lsr	r27
    1126:	a7 95       	ror	r26
    1128:	97 95       	ror	r25
    112a:	87 95       	ror	r24
    112c:	7a 95       	dec	r23
    112e:	d1 f7       	brne	.-12     	; 0x1124 <setPwmDuty+0x1e>
    1130:	70 2d       	mov	r23, r0
	TC4H = (dutyCycle) >> 8;
    1132:	49 2f       	mov	r20, r25
    1134:	5a 2f       	mov	r21, r26
    1136:	6b 2f       	mov	r22, r27
    1138:	77 27       	eor	r23, r23
    113a:	40 93 bf 00 	sts	0x00BF, r20
	OCR4A = (dutyCycle) & 255;
    113e:	80 93 cf 00 	sts	0x00CF, r24
    1142:	08 95       	ret

00001144 <start>:
}

void start() {
	TCCR4A |= _BV(COM4A1);
    1144:	e0 ec       	ldi	r30, 0xC0	; 192
    1146:	f0 e0       	ldi	r31, 0x00	; 0
    1148:	80 81       	ld	r24, Z
    114a:	80 68       	ori	r24, 0x80	; 128
    114c:	80 83       	st	Z, r24
    114e:	08 95       	ret

00001150 <stop>:
}
void stop()  {
	TCCR4A &= ~(_BV(COM4A1));
    1150:	e0 ec       	ldi	r30, 0xC0	; 192
    1152:	f0 e0       	ldi	r31, 0x00	; 0
    1154:	80 81       	ld	r24, Z
    1156:	8f 77       	andi	r24, 0x7F	; 127
    1158:	80 83       	st	Z, r24
    115a:	08 95       	ret

0000115c <setPeriod>:
}

void setPeriod(unsigned long freq)  {
    115c:	9b 01       	movw	r18, r22
    115e:	ac 01       	movw	r20, r24
	unsigned long cycles = PLL_FREQ / 2 / freq;
    1160:	60 e0       	ldi	r22, 0x00	; 0
    1162:	7c e6       	ldi	r23, 0x6C	; 108
    1164:	8c ed       	ldi	r24, 0xDC	; 220
    1166:	92 e0       	ldi	r25, 0x02	; 2
    1168:	0e 94 49 0d 	call	0x1a92	; 0x1a92 <__udivmodsi4>
	unsigned char clockSelectBits = 0;
	
	if (cycles < TIMER4_RESOLUTION) {
    116c:	2f 3f       	cpi	r18, 0xFF	; 255
    116e:	63 e0       	ldi	r22, 0x03	; 3
    1170:	36 07       	cpc	r19, r22
    1172:	41 05       	cpc	r20, r1
    1174:	51 05       	cpc	r21, r1
    1176:	50 f4       	brcc	.+20     	; 0x118c <setPeriod+0x30>
		clockSelectBits = _BV(CS40);
		pwmPeriod = cycles;
    1178:	20 93 fc 05 	sts	0x05FC, r18
    117c:	30 93 fd 05 	sts	0x05FD, r19
    1180:	40 93 fe 05 	sts	0x05FE, r20
    1184:	50 93 ff 05 	sts	0x05FF, r21
void setPeriod(unsigned long freq)  {
	unsigned long cycles = PLL_FREQ / 2 / freq;
	unsigned char clockSelectBits = 0;
	
	if (cycles < TIMER4_RESOLUTION) {
		clockSelectBits = _BV(CS40);
    1188:	81 e0       	ldi	r24, 0x01	; 1
    118a:	71 c1       	rjmp	.+738    	; 0x146e <setPeriod+0x312>
		pwmPeriod = cycles;
	} else
	if (cycles < TIMER4_RESOLUTION * 2) {
    118c:	2e 3f       	cpi	r18, 0xFE	; 254
    118e:	67 e0       	ldi	r22, 0x07	; 7
    1190:	36 07       	cpc	r19, r22
    1192:	41 05       	cpc	r20, r1
    1194:	51 05       	cpc	r21, r1
    1196:	80 f4       	brcc	.+32     	; 0x11b8 <setPeriod+0x5c>
		clockSelectBits = _BV(CS41);
		pwmPeriod = cycles / 2;
    1198:	da 01       	movw	r26, r20
    119a:	c9 01       	movw	r24, r18
    119c:	b6 95       	lsr	r27
    119e:	a7 95       	ror	r26
    11a0:	97 95       	ror	r25
    11a2:	87 95       	ror	r24
    11a4:	80 93 fc 05 	sts	0x05FC, r24
    11a8:	90 93 fd 05 	sts	0x05FD, r25
    11ac:	a0 93 fe 05 	sts	0x05FE, r26
    11b0:	b0 93 ff 05 	sts	0x05FF, r27
	if (cycles < TIMER4_RESOLUTION) {
		clockSelectBits = _BV(CS40);
		pwmPeriod = cycles;
	} else
	if (cycles < TIMER4_RESOLUTION * 2) {
		clockSelectBits = _BV(CS41);
    11b4:	82 e0       	ldi	r24, 0x02	; 2
    11b6:	5b c1       	rjmp	.+694    	; 0x146e <setPeriod+0x312>
		pwmPeriod = cycles / 2;
	} else
	if (cycles < TIMER4_RESOLUTION * 4) {
    11b8:	2c 3f       	cpi	r18, 0xFC	; 252
    11ba:	6f e0       	ldi	r22, 0x0F	; 15
    11bc:	36 07       	cpc	r19, r22
    11be:	41 05       	cpc	r20, r1
    11c0:	51 05       	cpc	r21, r1
    11c2:	a0 f4       	brcc	.+40     	; 0x11ec <setPeriod+0x90>
		clockSelectBits = _BV(CS41) | _BV(CS40);
		pwmPeriod = cycles / 4;
    11c4:	da 01       	movw	r26, r20
    11c6:	c9 01       	movw	r24, r18
    11c8:	b6 95       	lsr	r27
    11ca:	a7 95       	ror	r26
    11cc:	97 95       	ror	r25
    11ce:	87 95       	ror	r24
    11d0:	b6 95       	lsr	r27
    11d2:	a7 95       	ror	r26
    11d4:	97 95       	ror	r25
    11d6:	87 95       	ror	r24
    11d8:	80 93 fc 05 	sts	0x05FC, r24
    11dc:	90 93 fd 05 	sts	0x05FD, r25
    11e0:	a0 93 fe 05 	sts	0x05FE, r26
    11e4:	b0 93 ff 05 	sts	0x05FF, r27
	if (cycles < TIMER4_RESOLUTION * 2) {
		clockSelectBits = _BV(CS41);
		pwmPeriod = cycles / 2;
	} else
	if (cycles < TIMER4_RESOLUTION * 4) {
		clockSelectBits = _BV(CS41) | _BV(CS40);
    11e8:	83 e0       	ldi	r24, 0x03	; 3
    11ea:	41 c1       	rjmp	.+642    	; 0x146e <setPeriod+0x312>
		pwmPeriod = cycles / 4;
	} else
	if (cycles < TIMER4_RESOLUTION * 8) {
    11ec:	28 3f       	cpi	r18, 0xF8	; 248
    11ee:	6f e1       	ldi	r22, 0x1F	; 31
    11f0:	36 07       	cpc	r19, r22
    11f2:	41 05       	cpc	r20, r1
    11f4:	51 05       	cpc	r21, r1
    11f6:	a0 f4       	brcc	.+40     	; 0x1220 <setPeriod+0xc4>
		clockSelectBits = _BV(CS42);
		pwmPeriod = cycles / 8;
    11f8:	da 01       	movw	r26, r20
    11fa:	c9 01       	movw	r24, r18
    11fc:	68 94       	set
    11fe:	12 f8       	bld	r1, 2
    1200:	b6 95       	lsr	r27
    1202:	a7 95       	ror	r26
    1204:	97 95       	ror	r25
    1206:	87 95       	ror	r24
    1208:	16 94       	lsr	r1
    120a:	d1 f7       	brne	.-12     	; 0x1200 <setPeriod+0xa4>
    120c:	80 93 fc 05 	sts	0x05FC, r24
    1210:	90 93 fd 05 	sts	0x05FD, r25
    1214:	a0 93 fe 05 	sts	0x05FE, r26
    1218:	b0 93 ff 05 	sts	0x05FF, r27
	if (cycles < TIMER4_RESOLUTION * 4) {
		clockSelectBits = _BV(CS41) | _BV(CS40);
		pwmPeriod = cycles / 4;
	} else
	if (cycles < TIMER4_RESOLUTION * 8) {
		clockSelectBits = _BV(CS42);
    121c:	84 e0       	ldi	r24, 0x04	; 4
    121e:	27 c1       	rjmp	.+590    	; 0x146e <setPeriod+0x312>
		pwmPeriod = cycles / 8;
	} else
	if (cycles < TIMER4_RESOLUTION * 16) {
    1220:	20 3f       	cpi	r18, 0xF0	; 240
    1222:	6f e3       	ldi	r22, 0x3F	; 63
    1224:	36 07       	cpc	r19, r22
    1226:	41 05       	cpc	r20, r1
    1228:	51 05       	cpc	r21, r1
    122a:	a0 f4       	brcc	.+40     	; 0x1254 <setPeriod+0xf8>
		clockSelectBits = _BV(CS42) | _BV(CS40);
		pwmPeriod = cycles / 16;
    122c:	da 01       	movw	r26, r20
    122e:	c9 01       	movw	r24, r18
    1230:	68 94       	set
    1232:	13 f8       	bld	r1, 3
    1234:	b6 95       	lsr	r27
    1236:	a7 95       	ror	r26
    1238:	97 95       	ror	r25
    123a:	87 95       	ror	r24
    123c:	16 94       	lsr	r1
    123e:	d1 f7       	brne	.-12     	; 0x1234 <setPeriod+0xd8>
    1240:	80 93 fc 05 	sts	0x05FC, r24
    1244:	90 93 fd 05 	sts	0x05FD, r25
    1248:	a0 93 fe 05 	sts	0x05FE, r26
    124c:	b0 93 ff 05 	sts	0x05FF, r27
	if (cycles < TIMER4_RESOLUTION * 8) {
		clockSelectBits = _BV(CS42);
		pwmPeriod = cycles / 8;
	} else
	if (cycles < TIMER4_RESOLUTION * 16) {
		clockSelectBits = _BV(CS42) | _BV(CS40);
    1250:	85 e0       	ldi	r24, 0x05	; 5
    1252:	0d c1       	rjmp	.+538    	; 0x146e <setPeriod+0x312>
		pwmPeriod = cycles / 16;
	} else
	if (cycles < TIMER4_RESOLUTION * 32) {
    1254:	20 3e       	cpi	r18, 0xE0	; 224
    1256:	6f e7       	ldi	r22, 0x7F	; 127
    1258:	36 07       	cpc	r19, r22
    125a:	41 05       	cpc	r20, r1
    125c:	51 05       	cpc	r21, r1
    125e:	a0 f4       	brcc	.+40     	; 0x1288 <setPeriod+0x12c>
		clockSelectBits = _BV(CS42) | _BV(CS41);
		pwmPeriod = cycles / 32;
    1260:	da 01       	movw	r26, r20
    1262:	c9 01       	movw	r24, r18
    1264:	68 94       	set
    1266:	14 f8       	bld	r1, 4
    1268:	b6 95       	lsr	r27
    126a:	a7 95       	ror	r26
    126c:	97 95       	ror	r25
    126e:	87 95       	ror	r24
    1270:	16 94       	lsr	r1
    1272:	d1 f7       	brne	.-12     	; 0x1268 <setPeriod+0x10c>
    1274:	80 93 fc 05 	sts	0x05FC, r24
    1278:	90 93 fd 05 	sts	0x05FD, r25
    127c:	a0 93 fe 05 	sts	0x05FE, r26
    1280:	b0 93 ff 05 	sts	0x05FF, r27
	if (cycles < TIMER4_RESOLUTION * 16) {
		clockSelectBits = _BV(CS42) | _BV(CS40);
		pwmPeriod = cycles / 16;
	} else
	if (cycles < TIMER4_RESOLUTION * 32) {
		clockSelectBits = _BV(CS42) | _BV(CS41);
    1284:	86 e0       	ldi	r24, 0x06	; 6
    1286:	f3 c0       	rjmp	.+486    	; 0x146e <setPeriod+0x312>
		pwmPeriod = cycles / 32;
	} else
	if (cycles < TIMER4_RESOLUTION * 64) {
    1288:	20 3c       	cpi	r18, 0xC0	; 192
    128a:	6f ef       	ldi	r22, 0xFF	; 255
    128c:	36 07       	cpc	r19, r22
    128e:	41 05       	cpc	r20, r1
    1290:	51 05       	cpc	r21, r1
    1292:	a0 f4       	brcc	.+40     	; 0x12bc <setPeriod+0x160>
		clockSelectBits = _BV(CS42) | _BV(CS41) | _BV(CS40);
		pwmPeriod = cycles / 64;
    1294:	da 01       	movw	r26, r20
    1296:	c9 01       	movw	r24, r18
    1298:	68 94       	set
    129a:	15 f8       	bld	r1, 5
    129c:	b6 95       	lsr	r27
    129e:	a7 95       	ror	r26
    12a0:	97 95       	ror	r25
    12a2:	87 95       	ror	r24
    12a4:	16 94       	lsr	r1
    12a6:	d1 f7       	brne	.-12     	; 0x129c <setPeriod+0x140>
    12a8:	80 93 fc 05 	sts	0x05FC, r24
    12ac:	90 93 fd 05 	sts	0x05FD, r25
    12b0:	a0 93 fe 05 	sts	0x05FE, r26
    12b4:	b0 93 ff 05 	sts	0x05FF, r27
	if (cycles < TIMER4_RESOLUTION * 32) {
		clockSelectBits = _BV(CS42) | _BV(CS41);
		pwmPeriod = cycles / 32;
	} else
	if (cycles < TIMER4_RESOLUTION * 64) {
		clockSelectBits = _BV(CS42) | _BV(CS41) | _BV(CS40);
    12b8:	87 e0       	ldi	r24, 0x07	; 7
    12ba:	d9 c0       	rjmp	.+434    	; 0x146e <setPeriod+0x312>
		pwmPeriod = cycles / 64;
	} else
	if (cycles < TIMER4_RESOLUTION * 128) {
    12bc:	20 38       	cpi	r18, 0x80	; 128
    12be:	6f ef       	ldi	r22, 0xFF	; 255
    12c0:	36 07       	cpc	r19, r22
    12c2:	61 e0       	ldi	r22, 0x01	; 1
    12c4:	46 07       	cpc	r20, r22
    12c6:	51 05       	cpc	r21, r1
    12c8:	a0 f4       	brcc	.+40     	; 0x12f2 <setPeriod+0x196>
		clockSelectBits = _BV(CS43);
		pwmPeriod = cycles / 128;
    12ca:	da 01       	movw	r26, r20
    12cc:	c9 01       	movw	r24, r18
    12ce:	68 94       	set
    12d0:	16 f8       	bld	r1, 6
    12d2:	b6 95       	lsr	r27
    12d4:	a7 95       	ror	r26
    12d6:	97 95       	ror	r25
    12d8:	87 95       	ror	r24
    12da:	16 94       	lsr	r1
    12dc:	d1 f7       	brne	.-12     	; 0x12d2 <setPeriod+0x176>
    12de:	80 93 fc 05 	sts	0x05FC, r24
    12e2:	90 93 fd 05 	sts	0x05FD, r25
    12e6:	a0 93 fe 05 	sts	0x05FE, r26
    12ea:	b0 93 ff 05 	sts	0x05FF, r27
	if (cycles < TIMER4_RESOLUTION * 64) {
		clockSelectBits = _BV(CS42) | _BV(CS41) | _BV(CS40);
		pwmPeriod = cycles / 64;
	} else
	if (cycles < TIMER4_RESOLUTION * 128) {
		clockSelectBits = _BV(CS43);
    12ee:	88 e0       	ldi	r24, 0x08	; 8
    12f0:	be c0       	rjmp	.+380    	; 0x146e <setPeriod+0x312>
		pwmPeriod = cycles / 128;
	} else
	if (cycles < TIMER4_RESOLUTION * 256) {
    12f2:	21 15       	cp	r18, r1
    12f4:	6f ef       	ldi	r22, 0xFF	; 255
    12f6:	36 07       	cpc	r19, r22
    12f8:	63 e0       	ldi	r22, 0x03	; 3
    12fa:	46 07       	cpc	r20, r22
    12fc:	51 05       	cpc	r21, r1
    12fe:	70 f4       	brcc	.+28     	; 0x131c <setPeriod+0x1c0>
		clockSelectBits = _BV(CS43) | _BV(CS40);
		pwmPeriod = cycles / 256;
    1300:	bb 27       	eor	r27, r27
    1302:	a5 2f       	mov	r26, r21
    1304:	94 2f       	mov	r25, r20
    1306:	83 2f       	mov	r24, r19
    1308:	80 93 fc 05 	sts	0x05FC, r24
    130c:	90 93 fd 05 	sts	0x05FD, r25
    1310:	a0 93 fe 05 	sts	0x05FE, r26
    1314:	b0 93 ff 05 	sts	0x05FF, r27
	if (cycles < TIMER4_RESOLUTION * 128) {
		clockSelectBits = _BV(CS43);
		pwmPeriod = cycles / 128;
	} else
	if (cycles < TIMER4_RESOLUTION * 256) {
		clockSelectBits = _BV(CS43) | _BV(CS40);
    1318:	89 e0       	ldi	r24, 0x09	; 9
    131a:	a9 c0       	rjmp	.+338    	; 0x146e <setPeriod+0x312>
		pwmPeriod = cycles / 256;
	} else
	if (cycles < TIMER4_RESOLUTION * 512) {
    131c:	21 15       	cp	r18, r1
    131e:	6e ef       	ldi	r22, 0xFE	; 254
    1320:	36 07       	cpc	r19, r22
    1322:	67 e0       	ldi	r22, 0x07	; 7
    1324:	46 07       	cpc	r20, r22
    1326:	51 05       	cpc	r21, r1
    1328:	a8 f4       	brcc	.+42     	; 0x1354 <setPeriod+0x1f8>
		clockSelectBits = _BV(CS43) | _BV(CS41);
		pwmPeriod = cycles / 512;
    132a:	da 01       	movw	r26, r20
    132c:	c9 01       	movw	r24, r18
    132e:	07 2e       	mov	r0, r23
    1330:	79 e0       	ldi	r23, 0x09	; 9
    1332:	b6 95       	lsr	r27
    1334:	a7 95       	ror	r26
    1336:	97 95       	ror	r25
    1338:	87 95       	ror	r24
    133a:	7a 95       	dec	r23
    133c:	d1 f7       	brne	.-12     	; 0x1332 <setPeriod+0x1d6>
    133e:	70 2d       	mov	r23, r0
    1340:	80 93 fc 05 	sts	0x05FC, r24
    1344:	90 93 fd 05 	sts	0x05FD, r25
    1348:	a0 93 fe 05 	sts	0x05FE, r26
    134c:	b0 93 ff 05 	sts	0x05FF, r27
	if (cycles < TIMER4_RESOLUTION * 256) {
		clockSelectBits = _BV(CS43) | _BV(CS40);
		pwmPeriod = cycles / 256;
	} else
	if (cycles < TIMER4_RESOLUTION * 512) {
		clockSelectBits = _BV(CS43) | _BV(CS41);
    1350:	8a e0       	ldi	r24, 0x0A	; 10
    1352:	8d c0       	rjmp	.+282    	; 0x146e <setPeriod+0x312>
		pwmPeriod = cycles / 512;
	} else
	if (cycles < TIMER4_RESOLUTION * 1024) {
    1354:	21 15       	cp	r18, r1
    1356:	6c ef       	ldi	r22, 0xFC	; 252
    1358:	36 07       	cpc	r19, r22
    135a:	6f e0       	ldi	r22, 0x0F	; 15
    135c:	46 07       	cpc	r20, r22
    135e:	51 05       	cpc	r21, r1
    1360:	a8 f4       	brcc	.+42     	; 0x138c <setPeriod+0x230>
		clockSelectBits = _BV(CS43) | _BV(CS41) | _BV(CS40);
		pwmPeriod = cycles / 1024;
    1362:	da 01       	movw	r26, r20
    1364:	c9 01       	movw	r24, r18
    1366:	07 2e       	mov	r0, r23
    1368:	7a e0       	ldi	r23, 0x0A	; 10
    136a:	b6 95       	lsr	r27
    136c:	a7 95       	ror	r26
    136e:	97 95       	ror	r25
    1370:	87 95       	ror	r24
    1372:	7a 95       	dec	r23
    1374:	d1 f7       	brne	.-12     	; 0x136a <setPeriod+0x20e>
    1376:	70 2d       	mov	r23, r0
    1378:	80 93 fc 05 	sts	0x05FC, r24
    137c:	90 93 fd 05 	sts	0x05FD, r25
    1380:	a0 93 fe 05 	sts	0x05FE, r26
    1384:	b0 93 ff 05 	sts	0x05FF, r27
	if (cycles < TIMER4_RESOLUTION * 512) {
		clockSelectBits = _BV(CS43) | _BV(CS41);
		pwmPeriod = cycles / 512;
	} else
	if (cycles < TIMER4_RESOLUTION * 1024) {
		clockSelectBits = _BV(CS43) | _BV(CS41) | _BV(CS40);
    1388:	8b e0       	ldi	r24, 0x0B	; 11
    138a:	71 c0       	rjmp	.+226    	; 0x146e <setPeriod+0x312>
		pwmPeriod = cycles / 1024;
	} else
	if (cycles < TIMER4_RESOLUTION * 2048) {
    138c:	21 15       	cp	r18, r1
    138e:	68 ef       	ldi	r22, 0xF8	; 248
    1390:	36 07       	cpc	r19, r22
    1392:	6f e1       	ldi	r22, 0x1F	; 31
    1394:	46 07       	cpc	r20, r22
    1396:	51 05       	cpc	r21, r1
    1398:	a8 f4       	brcc	.+42     	; 0x13c4 <setPeriod+0x268>
		clockSelectBits = _BV(CS43) | _BV(CS42);
		pwmPeriod = cycles / 2048;
    139a:	da 01       	movw	r26, r20
    139c:	c9 01       	movw	r24, r18
    139e:	07 2e       	mov	r0, r23
    13a0:	7b e0       	ldi	r23, 0x0B	; 11
    13a2:	b6 95       	lsr	r27
    13a4:	a7 95       	ror	r26
    13a6:	97 95       	ror	r25
    13a8:	87 95       	ror	r24
    13aa:	7a 95       	dec	r23
    13ac:	d1 f7       	brne	.-12     	; 0x13a2 <setPeriod+0x246>
    13ae:	70 2d       	mov	r23, r0
    13b0:	80 93 fc 05 	sts	0x05FC, r24
    13b4:	90 93 fd 05 	sts	0x05FD, r25
    13b8:	a0 93 fe 05 	sts	0x05FE, r26
    13bc:	b0 93 ff 05 	sts	0x05FF, r27
	if (cycles < TIMER4_RESOLUTION * 1024) {
		clockSelectBits = _BV(CS43) | _BV(CS41) | _BV(CS40);
		pwmPeriod = cycles / 1024;
	} else
	if (cycles < TIMER4_RESOLUTION * 2048) {
		clockSelectBits = _BV(CS43) | _BV(CS42);
    13c0:	8c e0       	ldi	r24, 0x0C	; 12
    13c2:	55 c0       	rjmp	.+170    	; 0x146e <setPeriod+0x312>
		pwmPeriod = cycles / 2048;
	} else
	if (cycles < TIMER4_RESOLUTION * 4096) {
    13c4:	21 15       	cp	r18, r1
    13c6:	60 ef       	ldi	r22, 0xF0	; 240
    13c8:	36 07       	cpc	r19, r22
    13ca:	6f e3       	ldi	r22, 0x3F	; 63
    13cc:	46 07       	cpc	r20, r22
    13ce:	51 05       	cpc	r21, r1
    13d0:	a8 f4       	brcc	.+42     	; 0x13fc <setPeriod+0x2a0>
		clockSelectBits = _BV(CS43) | _BV(CS42) | _BV(CS40);
		pwmPeriod = cycles / 4096;
    13d2:	da 01       	movw	r26, r20
    13d4:	c9 01       	movw	r24, r18
    13d6:	07 2e       	mov	r0, r23
    13d8:	7c e0       	ldi	r23, 0x0C	; 12
    13da:	b6 95       	lsr	r27
    13dc:	a7 95       	ror	r26
    13de:	97 95       	ror	r25
    13e0:	87 95       	ror	r24
    13e2:	7a 95       	dec	r23
    13e4:	d1 f7       	brne	.-12     	; 0x13da <setPeriod+0x27e>
    13e6:	70 2d       	mov	r23, r0
    13e8:	80 93 fc 05 	sts	0x05FC, r24
    13ec:	90 93 fd 05 	sts	0x05FD, r25
    13f0:	a0 93 fe 05 	sts	0x05FE, r26
    13f4:	b0 93 ff 05 	sts	0x05FF, r27
	if (cycles < TIMER4_RESOLUTION * 2048) {
		clockSelectBits = _BV(CS43) | _BV(CS42);
		pwmPeriod = cycles / 2048;
	} else
	if (cycles < TIMER4_RESOLUTION * 4096) {
		clockSelectBits = _BV(CS43) | _BV(CS42) | _BV(CS40);
    13f8:	8d e0       	ldi	r24, 0x0D	; 13
    13fa:	39 c0       	rjmp	.+114    	; 0x146e <setPeriod+0x312>
		pwmPeriod = cycles / 4096;
	} else
	if (cycles < TIMER4_RESOLUTION * 8192) {
    13fc:	21 15       	cp	r18, r1
    13fe:	60 ee       	ldi	r22, 0xE0	; 224
    1400:	36 07       	cpc	r19, r22
    1402:	6f e7       	ldi	r22, 0x7F	; 127
    1404:	46 07       	cpc	r20, r22
    1406:	51 05       	cpc	r21, r1
    1408:	a8 f4       	brcc	.+42     	; 0x1434 <setPeriod+0x2d8>
		clockSelectBits = _BV(CS43) | _BV(CS42) | _BV(CS41);
		pwmPeriod = cycles / 8192;
    140a:	da 01       	movw	r26, r20
    140c:	c9 01       	movw	r24, r18
    140e:	07 2e       	mov	r0, r23
    1410:	7d e0       	ldi	r23, 0x0D	; 13
    1412:	b6 95       	lsr	r27
    1414:	a7 95       	ror	r26
    1416:	97 95       	ror	r25
    1418:	87 95       	ror	r24
    141a:	7a 95       	dec	r23
    141c:	d1 f7       	brne	.-12     	; 0x1412 <setPeriod+0x2b6>
    141e:	70 2d       	mov	r23, r0
    1420:	80 93 fc 05 	sts	0x05FC, r24
    1424:	90 93 fd 05 	sts	0x05FD, r25
    1428:	a0 93 fe 05 	sts	0x05FE, r26
    142c:	b0 93 ff 05 	sts	0x05FF, r27
	if (cycles < TIMER4_RESOLUTION * 4096) {
		clockSelectBits = _BV(CS43) | _BV(CS42) | _BV(CS40);
		pwmPeriod = cycles / 4096;
	} else
	if (cycles < TIMER4_RESOLUTION * 8192) {
		clockSelectBits = _BV(CS43) | _BV(CS42) | _BV(CS41);
    1430:	8e e0       	ldi	r24, 0x0E	; 14
    1432:	1d c0       	rjmp	.+58     	; 0x146e <setPeriod+0x312>
		pwmPeriod = cycles / 8192;
	} else
	if (cycles < TIMER4_RESOLUTION * 16384) {
    1434:	21 15       	cp	r18, r1
    1436:	60 ec       	ldi	r22, 0xC0	; 192
    1438:	36 07       	cpc	r19, r22
    143a:	6f ef       	ldi	r22, 0xFF	; 255
    143c:	46 07       	cpc	r20, r22
    143e:	51 05       	cpc	r21, r1
    1440:	a8 f4       	brcc	.+42     	; 0x146c <setPeriod+0x310>
		clockSelectBits = _BV(CS43) | _BV(CS42) | _BV(CS41) | _BV(CS40);
	pwmPeriod = cycles / 16384;     }
    1442:	da 01       	movw	r26, r20
    1444:	c9 01       	movw	r24, r18
    1446:	07 2e       	mov	r0, r23
    1448:	7e e0       	ldi	r23, 0x0E	; 14
    144a:	b6 95       	lsr	r27
    144c:	a7 95       	ror	r26
    144e:	97 95       	ror	r25
    1450:	87 95       	ror	r24
    1452:	7a 95       	dec	r23
    1454:	d1 f7       	brne	.-12     	; 0x144a <setPeriod+0x2ee>
    1456:	70 2d       	mov	r23, r0
    1458:	80 93 fc 05 	sts	0x05FC, r24
    145c:	90 93 fd 05 	sts	0x05FD, r25
    1460:	a0 93 fe 05 	sts	0x05FE, r26
    1464:	b0 93 ff 05 	sts	0x05FF, r27
	if (cycles < TIMER4_RESOLUTION * 8192) {
		clockSelectBits = _BV(CS43) | _BV(CS42) | _BV(CS41);
		pwmPeriod = cycles / 8192;
	} else
	if (cycles < TIMER4_RESOLUTION * 16384) {
		clockSelectBits = _BV(CS43) | _BV(CS42) | _BV(CS41) | _BV(CS40);
    1468:	8f e0       	ldi	r24, 0x0F	; 15
    146a:	01 c0       	rjmp	.+2      	; 0x146e <setPeriod+0x312>
	TCCR4A &= ~(_BV(COM4A1));
}

void setPeriod(unsigned long freq)  {
	unsigned long cycles = PLL_FREQ / 2 / freq;
	unsigned char clockSelectBits = 0;
    146c:	80 e0       	ldi	r24, 0x00	; 0
	} else
	if (cycles < TIMER4_RESOLUTION * 16384) {
		clockSelectBits = _BV(CS43) | _BV(CS42) | _BV(CS41) | _BV(CS40);
	pwmPeriod = cycles / 16384;     }
	/*else           clockSelectBits = _BV(CS43) | _BV(CS42) | _BV(CS41) | _BV(CS40);        pwmPeriod = TIMER4_RESOLUTION - 1; */
	TCCR4B = clockSelectBits;             TC4H = pwmPeriod >> 8;
    146e:	80 93 c1 00 	sts	0x00C1, r24
    1472:	80 91 fc 05 	lds	r24, 0x05FC
    1476:	90 91 fd 05 	lds	r25, 0x05FD
    147a:	a0 91 fe 05 	lds	r26, 0x05FE
    147e:	b0 91 ff 05 	lds	r27, 0x05FF
    1482:	89 2f       	mov	r24, r25
    1484:	9a 2f       	mov	r25, r26
    1486:	ab 2f       	mov	r26, r27
    1488:	bb 27       	eor	r27, r27
    148a:	80 93 bf 00 	sts	0x00BF, r24
	OCR4C = pwmPeriod;
    148e:	80 91 fc 05 	lds	r24, 0x05FC
    1492:	80 93 d1 00 	sts	0x00D1, r24
    1496:	08 95       	ret

00001498 <initialize>:
//	while(!(PLLCSR & _BV(PLOCK))); //warten bis pll gestartet
	
//	PLLFRQ |= _BV(PLLTM1); /* PCK 96MHz */
	
	
	TCCR4A = (1<<PWM4A);
    1498:	22 e0       	ldi	r18, 0x02	; 2
    149a:	20 93 c0 00 	sts	0x00C0, r18
	TCCR4E = (1<<ENHC4);
    149e:	20 e4       	ldi	r18, 0x40	; 64
    14a0:	20 93 c4 00 	sts	0x00C4, r18
	TCCR4D = (1<<WGM40); //set it to phase and frequency correct mode
    14a4:	21 e0       	ldi	r18, 0x01	; 1
    14a6:	20 93 c3 00 	sts	0x00C3, r18
	TCCR4C = 0;
    14aa:	10 92 c2 00 	sts	0x00C2, r1
	setPeriod(freq);
    14ae:	0e 94 ae 08 	call	0x115c	; 0x115c <setPeriod>
    14b2:	08 95       	ret

000014b4 <tool_init>:



void tool_init (void)
{
		initialize(10000);  // Frequency to generate in Hz
    14b4:	60 e1       	ldi	r22, 0x10	; 16
    14b6:	77 e2       	ldi	r23, 0x27	; 39
    14b8:	80 e0       	ldi	r24, 0x00	; 0
    14ba:	90 e0       	ldi	r25, 0x00	; 0
    14bc:	0e 94 4c 0a 	call	0x1498	; 0x1498 <initialize>
		setPwmDuty(512);     // Duty cycle 0-1024, 1024 is 100%, 512 is 50%
    14c0:	80 e0       	ldi	r24, 0x00	; 0
    14c2:	92 e0       	ldi	r25, 0x02	; 2
    14c4:	0e 94 83 08 	call	0x1106	; 0x1106 <setPwmDuty>
		start();
    14c8:	0e 94 a2 08 	call	0x1144	; 0x1144 <start>
    14cc:	08 95       	ret

000014ce <set_tool_speed>:
}

void set_tool_speed (uint16_t speed)// wird von den anderern genutzt von 0 bis 1024
{
    14ce:	cf 93       	push	r28
    14d0:	df 93       	push	r29
    14d2:	ec 01       	movw	r28, r24

	if (speed==0)
    14d4:	00 97       	sbiw	r24, 0x00	; 0
    14d6:	39 f4       	brne	.+14     	; 0x14e6 <set_tool_speed+0x18>
		{
		setPwmDuty(0);
    14d8:	80 e0       	ldi	r24, 0x00	; 0
    14da:	90 e0       	ldi	r25, 0x00	; 0
    14dc:	0e 94 83 08 	call	0x1106	; 0x1106 <setPwmDuty>
		stop();
    14e0:	0e 94 a8 08 	call	0x1150	; 0x1150 <stop>
    14e4:	10 c0       	rjmp	.+32     	; 0x1506 <set_tool_speed+0x38>
		}	
	else if (speed <= 1024)
    14e6:	c1 30       	cpi	r28, 0x01	; 1
    14e8:	84 e0       	ldi	r24, 0x04	; 4
    14ea:	d8 07       	cpc	r29, r24
    14ec:	30 f4       	brcc	.+12     	; 0x14fa <set_tool_speed+0x2c>
		{	
		start();	
    14ee:	0e 94 a2 08 	call	0x1144	; 0x1144 <start>
		setPwmDuty(speed);
    14f2:	ce 01       	movw	r24, r28
    14f4:	0e 94 83 08 	call	0x1106	; 0x1106 <setPwmDuty>
    14f8:	06 c0       	rjmp	.+12     	; 0x1506 <set_tool_speed+0x38>
		}
	else
		{
		start();	
    14fa:	0e 94 a2 08 	call	0x1144	; 0x1144 <start>
		setPwmDuty(1024); //max speed
    14fe:	80 e0       	ldi	r24, 0x00	; 0
    1500:	94 e0       	ldi	r25, 0x04	; 4
    1502:	0e 94 83 08 	call	0x1106	; 0x1106 <setPwmDuty>
		}
    1506:	df 91       	pop	r29
    1508:	cf 91       	pop	r28
    150a:	08 95       	ret

0000150c <usb_init>:
 **************************************************************************/

// initialize USB serial
void usb_init(void)
{
	HW_CONFIG();
    150c:	81 e0       	ldi	r24, 0x01	; 1
    150e:	80 93 d7 00 	sts	0x00D7, r24
        USB_FREEZE();				// enable USB
    1512:	80 ea       	ldi	r24, 0xA0	; 160
    1514:	80 93 d8 00 	sts	0x00D8, r24
        PLL_CONFIG();				// config PLL, 16 MHz xtal
    1518:	82 e1       	ldi	r24, 0x12	; 18
    151a:	89 bd       	out	0x29, r24	; 41
        while (!(PLLCSR & (1<<PLOCK))) ;	// wait for PLL lock
    151c:	09 b4       	in	r0, 0x29	; 41
    151e:	00 fe       	sbrs	r0, 0
    1520:	fd cf       	rjmp	.-6      	; 0x151c <usb_init+0x10>
        USB_CONFIG();				// start USB clock
    1522:	80 e9       	ldi	r24, 0x90	; 144
    1524:	80 93 d8 00 	sts	0x00D8, r24
        UDCON = 0;				// enable attach resistor
    1528:	10 92 e0 00 	sts	0x00E0, r1
	usb_configuration = 0;
    152c:	10 92 01 06 	sts	0x0601, r1
	cdc_line_rtsdtr = 0;
    1530:	10 92 02 06 	sts	0x0602, r1
        UDIEN = (1<<EORSTE)|(1<<SOFE);
    1534:	8c e0       	ldi	r24, 0x0C	; 12
    1536:	80 93 e2 00 	sts	0x00E2, r24
	sei();
    153a:	78 94       	sei
    153c:	08 95       	ret

0000153e <usb_serial_getchar>:
	uint8_t c, intr_state;

	// interrupts are disabled so these functions can be
	// used from the main program or interrupt context,
	// even both in the same program!
	intr_state = SREG;
    153e:	2f b7       	in	r18, 0x3f	; 63
	cli();
    1540:	f8 94       	cli
	if (!usb_configuration) {
    1542:	80 91 01 06 	lds	r24, 0x0601
    1546:	81 11       	cpse	r24, r1
    1548:	03 c0       	rjmp	.+6      	; 0x1550 <usb_serial_getchar+0x12>
		SREG = intr_state;
    154a:	2f bf       	out	0x3f, r18	; 63
		return -1;
    154c:	8f ef       	ldi	r24, 0xFF	; 255
    154e:	08 95       	ret
	}
	UENUM = CDC_RX_ENDPOINT;
    1550:	83 e0       	ldi	r24, 0x03	; 3
    1552:	80 93 e9 00 	sts	0x00E9, r24
	retry:
	c = UEINTX;
    1556:	80 91 e8 00 	lds	r24, 0x00E8
	if (!(c & (1<<RWAL))) {
    155a:	85 fd       	sbrc	r24, 5
    155c:	11 c0       	rjmp	.+34     	; 0x1580 <usb_serial_getchar+0x42>
		// no data in buffer
		if (c & (1<<RXOUTI)) {
    155e:	82 fd       	sbrc	r24, 2
    1560:	04 c0       	rjmp	.+8      	; 0x156a <usb_serial_getchar+0x2c>
    1562:	0b c0       	rjmp	.+22     	; 0x157a <usb_serial_getchar+0x3c>
    1564:	82 fd       	sbrc	r24, 2
    1566:	04 c0       	rjmp	.+8      	; 0x1570 <usb_serial_getchar+0x32>
    1568:	08 c0       	rjmp	.+16     	; 0x157a <usb_serial_getchar+0x3c>
			UEINTX = 0x6B;
    156a:	e8 ee       	ldi	r30, 0xE8	; 232
    156c:	f0 e0       	ldi	r31, 0x00	; 0
    156e:	9b e6       	ldi	r25, 0x6B	; 107
    1570:	90 83       	st	Z, r25
		SREG = intr_state;
		return -1;
	}
	UENUM = CDC_RX_ENDPOINT;
	retry:
	c = UEINTX;
    1572:	80 81       	ld	r24, Z
	if (!(c & (1<<RWAL))) {
    1574:	85 ff       	sbrs	r24, 5
    1576:	f6 cf       	rjmp	.-20     	; 0x1564 <usb_serial_getchar+0x26>
    1578:	03 c0       	rjmp	.+6      	; 0x1580 <usb_serial_getchar+0x42>
		// no data in buffer
		if (c & (1<<RXOUTI)) {
			UEINTX = 0x6B;
			goto retry;
		}	
		SREG = intr_state;
    157a:	2f bf       	out	0x3f, r18	; 63
		return -1;
    157c:	8f ef       	ldi	r24, 0xFF	; 255
    157e:	08 95       	ret
	}
	// take one byte out of the buffer
	c = UEDATX;
    1580:	80 91 f1 00 	lds	r24, 0x00F1
	// if buffer completely used, release it
	if (!(UEINTX & (1<<RWAL))) UEINTX = 0x6B;
    1584:	90 91 e8 00 	lds	r25, 0x00E8
    1588:	95 fd       	sbrc	r25, 5
    158a:	03 c0       	rjmp	.+6      	; 0x1592 <usb_serial_getchar+0x54>
    158c:	9b e6       	ldi	r25, 0x6B	; 107
    158e:	90 93 e8 00 	sts	0x00E8, r25
	SREG = intr_state;
    1592:	2f bf       	out	0x3f, r18	; 63
	return c;
}
    1594:	08 95       	ret

00001596 <usb_serial_available>:
// number of bytes available in the receive buffer
uint8_t usb_serial_available(void)
{
	uint8_t n=0, i, intr_state;

	intr_state = SREG;
    1596:	9f b7       	in	r25, 0x3f	; 63
	cli();
    1598:	f8 94       	cli
	if (usb_configuration) {
    159a:	80 91 01 06 	lds	r24, 0x0601
    159e:	88 23       	and	r24, r24
    15a0:	89 f0       	breq	.+34     	; 0x15c4 <usb_serial_available+0x2e>
		UENUM = CDC_RX_ENDPOINT;
    15a2:	83 e0       	ldi	r24, 0x03	; 3
    15a4:	80 93 e9 00 	sts	0x00E9, r24
		n = UEBCLX;
    15a8:	80 91 f2 00 	lds	r24, 0x00F2
		if (!n) {
    15ac:	81 11       	cpse	r24, r1
    15ae:	0b c0       	rjmp	.+22     	; 0x15c6 <usb_serial_available+0x30>
			i = UEINTX;
    15b0:	20 91 e8 00 	lds	r18, 0x00E8
			if (i & (1<<RXOUTI) && !(i & (1<<RWAL))) UEINTX = 0x6B;
    15b4:	22 ff       	sbrs	r18, 2
    15b6:	07 c0       	rjmp	.+14     	; 0x15c6 <usb_serial_available+0x30>
    15b8:	25 fd       	sbrc	r18, 5
    15ba:	05 c0       	rjmp	.+10     	; 0x15c6 <usb_serial_available+0x30>
    15bc:	2b e6       	ldi	r18, 0x6B	; 107
    15be:	20 93 e8 00 	sts	0x00E8, r18
    15c2:	01 c0       	rjmp	.+2      	; 0x15c6 <usb_serial_available+0x30>
}

// number of bytes available in the receive buffer
uint8_t usb_serial_available(void)
{
	uint8_t n=0, i, intr_state;
    15c4:	80 e0       	ldi	r24, 0x00	; 0
		if (!n) {
			i = UEINTX;
			if (i & (1<<RXOUTI) && !(i & (1<<RWAL))) UEINTX = 0x6B;
		}
	}
	SREG = intr_state;
    15c6:	9f bf       	out	0x3f, r25	; 63
	return n;
}
    15c8:	08 95       	ret

000015ca <usb_serial_flush_input>:
// discard any buffered input
void usb_serial_flush_input(void)
{
	uint8_t intr_state;

	if (usb_configuration) {
    15ca:	80 91 01 06 	lds	r24, 0x0601
    15ce:	88 23       	and	r24, r24
    15d0:	89 f0       	breq	.+34     	; 0x15f4 <usb_serial_flush_input+0x2a>
		intr_state = SREG;
    15d2:	2f b7       	in	r18, 0x3f	; 63
		cli();
    15d4:	f8 94       	cli
		UENUM = CDC_RX_ENDPOINT;
    15d6:	83 e0       	ldi	r24, 0x03	; 3
    15d8:	80 93 e9 00 	sts	0x00E9, r24
		while ((UEINTX & (1<<RWAL))) {
    15dc:	80 91 e8 00 	lds	r24, 0x00E8
    15e0:	85 ff       	sbrs	r24, 5
    15e2:	07 c0       	rjmp	.+14     	; 0x15f2 <usb_serial_flush_input+0x28>
			UEINTX = 0x6B; 
    15e4:	e8 ee       	ldi	r30, 0xE8	; 232
    15e6:	f0 e0       	ldi	r31, 0x00	; 0
    15e8:	9b e6       	ldi	r25, 0x6B	; 107
    15ea:	90 83       	st	Z, r25

	if (usb_configuration) {
		intr_state = SREG;
		cli();
		UENUM = CDC_RX_ENDPOINT;
		while ((UEINTX & (1<<RWAL))) {
    15ec:	80 81       	ld	r24, Z
    15ee:	85 fd       	sbrc	r24, 5
    15f0:	fc cf       	rjmp	.-8      	; 0x15ea <usb_serial_flush_input+0x20>
			UEINTX = 0x6B; 
		}
		SREG = intr_state;
    15f2:	2f bf       	out	0x3f, r18	; 63
    15f4:	08 95       	ret

000015f6 <usb_serial_putchar>:
	}
}

// transmit a character.  0 returned on success, -1 on error
int8_t usb_serial_putchar(uint8_t c)
{
    15f6:	cf 93       	push	r28
    15f8:	df 93       	push	r29
	uint8_t timeout, intr_state;

	// if we're not online (enumerated and configured), error
	if (!usb_configuration) return -1;
    15fa:	90 91 01 06 	lds	r25, 0x0601
    15fe:	99 23       	and	r25, r25
    1600:	09 f4       	brne	.+2      	; 0x1604 <usb_serial_putchar+0xe>
    1602:	4d c0       	rjmp	.+154    	; 0x169e <usb_serial_putchar+0xa8>
	// interrupts are disabled so these functions can be
	// used from the main program or interrupt context,
	// even both in the same program!
	intr_state = SREG;
    1604:	9f b7       	in	r25, 0x3f	; 63
	cli();
    1606:	f8 94       	cli
	UENUM = CDC_TX_ENDPOINT;
    1608:	24 e0       	ldi	r18, 0x04	; 4
    160a:	20 93 e9 00 	sts	0x00E9, r18
	// if we gave up due to timeout before, don't wait again
	if (transmit_previous_timeout) {
    160e:	20 91 03 06 	lds	r18, 0x0603
    1612:	22 23       	and	r18, r18
    1614:	49 f0       	breq	.+18     	; 0x1628 <usb_serial_putchar+0x32>
		if (!(UEINTX & (1<<RWAL))) {
    1616:	20 91 e8 00 	lds	r18, 0x00E8
    161a:	25 fd       	sbrc	r18, 5
    161c:	03 c0       	rjmp	.+6      	; 0x1624 <usb_serial_putchar+0x2e>
			SREG = intr_state;
    161e:	9f bf       	out	0x3f, r25	; 63
			return -1;
    1620:	8f ef       	ldi	r24, 0xFF	; 255
    1622:	42 c0       	rjmp	.+132    	; 0x16a8 <usb_serial_putchar+0xb2>
		}
		transmit_previous_timeout = 0;
    1624:	10 92 03 06 	sts	0x0603, r1
	}
	// wait for the FIFO to be ready to accept data
	timeout = UDFNUML + TRANSMIT_TIMEOUT;
    1628:	30 91 e4 00 	lds	r19, 0x00E4
    162c:	37 5e       	subi	r19, 0xE7	; 231
	while (1) {
		// are we ready to transmit?
		if (UEINTX & (1<<RWAL)) break;
    162e:	20 91 e8 00 	lds	r18, 0x00E8
    1632:	25 fd       	sbrc	r18, 5
    1634:	25 c0       	rjmp	.+74     	; 0x1680 <usb_serial_putchar+0x8a>
		SREG = intr_state;
    1636:	9f bf       	out	0x3f, r25	; 63
		// have we waited too long?  This happens if the user
		// is not running an application that is listening
		if (UDFNUML == timeout) {
    1638:	90 91 e4 00 	lds	r25, 0x00E4
    163c:	93 17       	cp	r25, r19
    163e:	49 f0       	breq	.+18     	; 0x1652 <usb_serial_putchar+0x5c>
			transmit_previous_timeout = 1;
			return -1;
		}
		// has the USB gone offline?
		if (!usb_configuration) return -1;
    1640:	90 91 01 06 	lds	r25, 0x0601
    1644:	91 11       	cpse	r25, r1
    1646:	0f c0       	rjmp	.+30     	; 0x1666 <usb_serial_putchar+0x70>
    1648:	2c c0       	rjmp	.+88     	; 0x16a2 <usb_serial_putchar+0xac>
	// wait for the FIFO to be ready to accept data
	timeout = UDFNUML + TRANSMIT_TIMEOUT;
	while (1) {
		// are we ready to transmit?
		if (UEINTX & (1<<RWAL)) break;
		SREG = intr_state;
    164a:	9f bf       	out	0x3f, r25	; 63
		// have we waited too long?  This happens if the user
		// is not running an application that is listening
		if (UDFNUML == timeout) {
    164c:	98 81       	ld	r25, Y
    164e:	93 13       	cpse	r25, r19
    1650:	05 c0       	rjmp	.+10     	; 0x165c <usb_serial_putchar+0x66>
			transmit_previous_timeout = 1;
    1652:	81 e0       	ldi	r24, 0x01	; 1
    1654:	80 93 03 06 	sts	0x0603, r24
			return -1;
    1658:	8f ef       	ldi	r24, 0xFF	; 255
    165a:	26 c0       	rjmp	.+76     	; 0x16a8 <usb_serial_putchar+0xb2>
		}
		// has the USB gone offline?
		if (!usb_configuration) return -1;
    165c:	90 91 01 06 	lds	r25, 0x0601
    1660:	91 11       	cpse	r25, r1
    1662:	08 c0       	rjmp	.+16     	; 0x1674 <usb_serial_putchar+0x7e>
    1664:	20 c0       	rjmp	.+64     	; 0x16a6 <usb_serial_putchar+0xb0>
		// get ready to try checking again
		intr_state = SREG;
		cli();
		UENUM = CDC_TX_ENDPOINT;
    1666:	a9 ee       	ldi	r26, 0xE9	; 233
    1668:	b0 e0       	ldi	r27, 0x00	; 0
    166a:	44 e0       	ldi	r20, 0x04	; 4
	}
	// wait for the FIFO to be ready to accept data
	timeout = UDFNUML + TRANSMIT_TIMEOUT;
	while (1) {
		// are we ready to transmit?
		if (UEINTX & (1<<RWAL)) break;
    166c:	e8 ee       	ldi	r30, 0xE8	; 232
    166e:	f0 e0       	ldi	r31, 0x00	; 0
		SREG = intr_state;
		// have we waited too long?  This happens if the user
		// is not running an application that is listening
		if (UDFNUML == timeout) {
    1670:	c4 ee       	ldi	r28, 0xE4	; 228
    1672:	d0 e0       	ldi	r29, 0x00	; 0
			return -1;
		}
		// has the USB gone offline?
		if (!usb_configuration) return -1;
		// get ready to try checking again
		intr_state = SREG;
    1674:	9f b7       	in	r25, 0x3f	; 63
		cli();
    1676:	f8 94       	cli
		UENUM = CDC_TX_ENDPOINT;
    1678:	4c 93       	st	X, r20
	}
	// wait for the FIFO to be ready to accept data
	timeout = UDFNUML + TRANSMIT_TIMEOUT;
	while (1) {
		// are we ready to transmit?
		if (UEINTX & (1<<RWAL)) break;
    167a:	20 81       	ld	r18, Z
    167c:	25 ff       	sbrs	r18, 5
    167e:	e5 cf       	rjmp	.-54     	; 0x164a <usb_serial_putchar+0x54>
		intr_state = SREG;
		cli();
		UENUM = CDC_TX_ENDPOINT;
	}
	// actually write the byte into the FIFO
	UEDATX = c;
    1680:	80 93 f1 00 	sts	0x00F1, r24
	// if this completed a packet, transmit it now!
	if (!(UEINTX & (1<<RWAL))) UEINTX = 0x3A;
    1684:	80 91 e8 00 	lds	r24, 0x00E8
    1688:	85 fd       	sbrc	r24, 5
    168a:	03 c0       	rjmp	.+6      	; 0x1692 <usb_serial_putchar+0x9c>
    168c:	8a e3       	ldi	r24, 0x3A	; 58
    168e:	80 93 e8 00 	sts	0x00E8, r24
	transmit_flush_timer = TRANSMIT_FLUSH_TIMEOUT;
    1692:	85 e0       	ldi	r24, 0x05	; 5
    1694:	80 93 00 06 	sts	0x0600, r24
	SREG = intr_state;
    1698:	9f bf       	out	0x3f, r25	; 63
	return 0;
    169a:	80 e0       	ldi	r24, 0x00	; 0
    169c:	05 c0       	rjmp	.+10     	; 0x16a8 <usb_serial_putchar+0xb2>
int8_t usb_serial_putchar(uint8_t c)
{
	uint8_t timeout, intr_state;

	// if we're not online (enumerated and configured), error
	if (!usb_configuration) return -1;
    169e:	8f ef       	ldi	r24, 0xFF	; 255
    16a0:	03 c0       	rjmp	.+6      	; 0x16a8 <usb_serial_putchar+0xb2>
		if (UDFNUML == timeout) {
			transmit_previous_timeout = 1;
			return -1;
		}
		// has the USB gone offline?
		if (!usb_configuration) return -1;
    16a2:	8f ef       	ldi	r24, 0xFF	; 255
    16a4:	01 c0       	rjmp	.+2      	; 0x16a8 <usb_serial_putchar+0xb2>
    16a6:	8f ef       	ldi	r24, 0xFF	; 255
	// if this completed a packet, transmit it now!
	if (!(UEINTX & (1<<RWAL))) UEINTX = 0x3A;
	transmit_flush_timer = TRANSMIT_FLUSH_TIMEOUT;
	SREG = intr_state;
	return 0;
}
    16a8:	df 91       	pop	r29
    16aa:	cf 91       	pop	r28
    16ac:	08 95       	ret

000016ae <__vector_10>:

// USB Device Interrupt - handle all device-level events
// the transmit buffer flushing is triggered by the start of frame
//
ISR(USB_GEN_vect)
{
    16ae:	1f 92       	push	r1
    16b0:	0f 92       	push	r0
    16b2:	0f b6       	in	r0, 0x3f	; 63
    16b4:	0f 92       	push	r0
    16b6:	11 24       	eor	r1, r1
    16b8:	8f 93       	push	r24
    16ba:	9f 93       	push	r25
    16bc:	ef 93       	push	r30
    16be:	ff 93       	push	r31
	uint8_t intbits, t;

        intbits = UDINT;
    16c0:	e1 ee       	ldi	r30, 0xE1	; 225
    16c2:	f0 e0       	ldi	r31, 0x00	; 0
    16c4:	80 81       	ld	r24, Z
        UDINT = 0;
    16c6:	10 82       	st	Z, r1
        if (intbits & (1<<EORSTI)) {
    16c8:	83 ff       	sbrs	r24, 3
    16ca:	11 c0       	rjmp	.+34     	; 0x16ee <__vector_10+0x40>
		UENUM = 0;
    16cc:	10 92 e9 00 	sts	0x00E9, r1
		UECONX = 1;
    16d0:	91 e0       	ldi	r25, 0x01	; 1
    16d2:	90 93 eb 00 	sts	0x00EB, r25
		UECFG0X = EP_TYPE_CONTROL;
    16d6:	10 92 ec 00 	sts	0x00EC, r1
		UECFG1X = EP_SIZE(ENDPOINT0_SIZE) | EP_SINGLE_BUFFER;
    16da:	92 e1       	ldi	r25, 0x12	; 18
    16dc:	90 93 ed 00 	sts	0x00ED, r25
		UEIENX = (1<<RXSTPE);
    16e0:	98 e0       	ldi	r25, 0x08	; 8
    16e2:	90 93 f0 00 	sts	0x00F0, r25
		usb_configuration = 0;
    16e6:	10 92 01 06 	sts	0x0601, r1
		cdc_line_rtsdtr = 0;
    16ea:	10 92 02 06 	sts	0x0602, r1
        }
	if (intbits & (1<<SOFI)) {
    16ee:	82 ff       	sbrs	r24, 2
    16f0:	13 c0       	rjmp	.+38     	; 0x1718 <__vector_10+0x6a>
		if (usb_configuration) {
    16f2:	80 91 01 06 	lds	r24, 0x0601
    16f6:	88 23       	and	r24, r24
    16f8:	79 f0       	breq	.+30     	; 0x1718 <__vector_10+0x6a>
			t = transmit_flush_timer;
    16fa:	80 91 00 06 	lds	r24, 0x0600
			if (t) {
    16fe:	88 23       	and	r24, r24
    1700:	59 f0       	breq	.+22     	; 0x1718 <__vector_10+0x6a>
				transmit_flush_timer = --t;
    1702:	81 50       	subi	r24, 0x01	; 1
    1704:	80 93 00 06 	sts	0x0600, r24
				if (!t) {
    1708:	81 11       	cpse	r24, r1
    170a:	06 c0       	rjmp	.+12     	; 0x1718 <__vector_10+0x6a>
					UENUM = CDC_TX_ENDPOINT;
    170c:	84 e0       	ldi	r24, 0x04	; 4
    170e:	80 93 e9 00 	sts	0x00E9, r24
					UEINTX = 0x3A;
    1712:	8a e3       	ldi	r24, 0x3A	; 58
    1714:	80 93 e8 00 	sts	0x00E8, r24
				}
			}
		}
	}
}
    1718:	ff 91       	pop	r31
    171a:	ef 91       	pop	r30
    171c:	9f 91       	pop	r25
    171e:	8f 91       	pop	r24
    1720:	0f 90       	pop	r0
    1722:	0f be       	out	0x3f, r0	; 63
    1724:	0f 90       	pop	r0
    1726:	1f 90       	pop	r1
    1728:	18 95       	reti

0000172a <__vector_11>:
// USB Endpoint Interrupt - endpoint 0 is handled here.  The
// other endpoints are manipulated by the user-callable
// functions, and the start-of-frame interrupt.
//
ISR(USB_COM_vect)
{
    172a:	1f 92       	push	r1
    172c:	0f 92       	push	r0
    172e:	0f b6       	in	r0, 0x3f	; 63
    1730:	0f 92       	push	r0
    1732:	11 24       	eor	r1, r1
    1734:	0f 93       	push	r16
    1736:	1f 93       	push	r17
    1738:	2f 93       	push	r18
    173a:	3f 93       	push	r19
    173c:	4f 93       	push	r20
    173e:	5f 93       	push	r21
    1740:	6f 93       	push	r22
    1742:	7f 93       	push	r23
    1744:	8f 93       	push	r24
    1746:	9f 93       	push	r25
    1748:	af 93       	push	r26
    174a:	bf 93       	push	r27
    174c:	cf 93       	push	r28
    174e:	df 93       	push	r29
    1750:	ef 93       	push	r30
    1752:	ff 93       	push	r31
	uint16_t wLength;
	uint16_t desc_val;
	const uint8_t *desc_addr;
	uint8_t	desc_length;

        UENUM = 0;
    1754:	10 92 e9 00 	sts	0x00E9, r1
        intbits = UEINTX;
    1758:	80 91 e8 00 	lds	r24, 0x00E8
        if (intbits & (1<<RXSTPI)) {
    175c:	83 ff       	sbrs	r24, 3
    175e:	51 c1       	rjmp	.+674    	; 0x1a02 <__vector_11+0x2d8>
                bmRequestType = UEDATX;
    1760:	e1 ef       	ldi	r30, 0xF1	; 241
    1762:	f0 e0       	ldi	r31, 0x00	; 0
    1764:	70 81       	ld	r23, Z
                bRequest = UEDATX;
    1766:	40 81       	ld	r20, Z
                wValue = UEDATX;
    1768:	20 81       	ld	r18, Z
                wValue |= (UEDATX << 8);
    176a:	30 81       	ld	r19, Z
    176c:	93 2f       	mov	r25, r19
    176e:	80 e0       	ldi	r24, 0x00	; 0
    1770:	dc 01       	movw	r26, r24
    1772:	a2 2b       	or	r26, r18
    1774:	9d 01       	movw	r18, r26
                wIndex = UEDATX;
    1776:	50 81       	ld	r21, Z
                wIndex |= (UEDATX << 8);
    1778:	60 81       	ld	r22, Z
    177a:	96 2f       	mov	r25, r22
    177c:	80 e0       	ldi	r24, 0x00	; 0
    177e:	85 2b       	or	r24, r21
                wLength = UEDATX;
    1780:	a0 81       	ld	r26, Z
                wLength |= (UEDATX << 8);
    1782:	b0 81       	ld	r27, Z
                UEINTX = ~((1<<RXSTPI) | (1<<RXOUTI) | (1<<TXINI));
    1784:	52 ef       	ldi	r21, 0xF2	; 242
    1786:	50 93 e8 00 	sts	0x00E8, r21
                if (bRequest == GET_DESCRIPTOR) {
    178a:	46 30       	cpi	r20, 0x06	; 6
    178c:	09 f0       	breq	.+2      	; 0x1790 <__vector_11+0x66>
    178e:	5c c0       	rjmp	.+184    	; 0x1848 <__vector_11+0x11e>
    1790:	04 c0       	rjmp	.+8      	; 0x179a <__vector_11+0x70>
			list = (const uint8_t *)descriptor_list;
			for (i=0; ; i++) {
				if (i >= NUM_DESC_LIST) {
					UECONX = (1<<STALLRQ)|(1<<EPEN);  //stall
    1792:	81 e2       	ldi	r24, 0x21	; 33
    1794:	80 93 eb 00 	sts	0x00EB, r24
					return;
    1798:	3b c1       	rjmp	.+630    	; 0x1a10 <__vector_11+0x2e6>
                wIndex = UEDATX;
                wIndex |= (UEDATX << 8);
                wLength = UEDATX;
                wLength |= (UEDATX << 8);
                UEINTX = ~((1<<RXSTPI) | (1<<RXOUTI) | (1<<TXINI));
                if (bRequest == GET_DESCRIPTOR) {
    179a:	c6 e0       	ldi	r28, 0x06	; 6
    179c:	46 e3       	ldi	r20, 0x36	; 54
    179e:	52 e0       	ldi	r21, 0x02	; 2
			for (i=0; ; i++) {
				if (i >= NUM_DESC_LIST) {
					UECONX = (1<<STALLRQ)|(1<<EPEN);  //stall
					return;
				}
				desc_val = pgm_read_word(list);
    17a0:	fa 01       	movw	r30, r20
    17a2:	65 91       	lpm	r22, Z+
    17a4:	74 91       	lpm	r23, Z
				if (desc_val != wValue) {
    17a6:	26 17       	cp	r18, r22
    17a8:	37 07       	cpc	r19, r23
    17aa:	19 f0       	breq	.+6      	; 0x17b2 <__vector_11+0x88>
					list += sizeof(struct descriptor_list_struct);
    17ac:	49 5f       	subi	r20, 0xF9	; 249
    17ae:	5f 4f       	sbci	r21, 0xFF	; 255
					continue;
    17b0:	20 c0       	rjmp	.+64     	; 0x17f2 <__vector_11+0xc8>
				}
				list += 2;
    17b2:	fa 01       	movw	r30, r20
    17b4:	32 96       	adiw	r30, 0x02	; 2
				desc_val = pgm_read_word(list);
    17b6:	65 91       	lpm	r22, Z+
    17b8:	74 91       	lpm	r23, Z
				if (desc_val != wIndex) {
    17ba:	86 17       	cp	r24, r22
    17bc:	97 07       	cpc	r25, r23
    17be:	19 f0       	breq	.+6      	; 0x17c6 <__vector_11+0x9c>
					list += sizeof(struct descriptor_list_struct)-2;
    17c0:	49 5f       	subi	r20, 0xF9	; 249
    17c2:	5f 4f       	sbci	r21, 0xFF	; 255
					continue;
    17c4:	16 c0       	rjmp	.+44     	; 0x17f2 <__vector_11+0xc8>
				}
				list += 2;
    17c6:	fa 01       	movw	r30, r20
    17c8:	34 96       	adiw	r30, 0x04	; 4
				desc_addr = (const uint8_t *)pgm_read_word(list);
    17ca:	85 91       	lpm	r24, Z+
    17cc:	94 91       	lpm	r25, Z
    17ce:	28 2f       	mov	r18, r24
    17d0:	39 2f       	mov	r19, r25
				list += 2;
    17d2:	fa 01       	movw	r30, r20
    17d4:	36 96       	adiw	r30, 0x06	; 6
				desc_length = pgm_read_byte(list);
    17d6:	44 91       	lpm	r20, Z
                wValue = UEDATX;
                wValue |= (UEDATX << 8);
                wIndex = UEDATX;
                wIndex |= (UEDATX << 8);
                wLength = UEDATX;
                wLength |= (UEDATX << 8);
    17d8:	9b 2f       	mov	r25, r27
    17da:	80 e0       	ldi	r24, 0x00	; 0
    17dc:	8a 2b       	or	r24, r26
				desc_addr = (const uint8_t *)pgm_read_word(list);
				list += 2;
				desc_length = pgm_read_byte(list);
				break;
			}
			len = (wLength < 256) ? wLength : 255;
    17de:	8f 3f       	cpi	r24, 0xFF	; 255
    17e0:	91 05       	cpc	r25, r1
    17e2:	19 f0       	breq	.+6      	; 0x17ea <__vector_11+0xc0>
    17e4:	10 f0       	brcs	.+4      	; 0x17ea <__vector_11+0xc0>
    17e6:	8f ef       	ldi	r24, 0xFF	; 255
    17e8:	90 e0       	ldi	r25, 0x00	; 0
    17ea:	84 17       	cp	r24, r20
    17ec:	28 f4       	brcc	.+10     	; 0x17f8 <__vector_11+0xce>
    17ee:	48 2f       	mov	r20, r24
    17f0:	03 c0       	rjmp	.+6      	; 0x17f8 <__vector_11+0xce>
    17f2:	c1 50       	subi	r28, 0x01	; 1
                wLength |= (UEDATX << 8);
                UEINTX = ~((1<<RXSTPI) | (1<<RXOUTI) | (1<<TXINI));
                if (bRequest == GET_DESCRIPTOR) {
			list = (const uint8_t *)descriptor_list;
			for (i=0; ; i++) {
				if (i >= NUM_DESC_LIST) {
    17f4:	a9 f6       	brne	.-86     	; 0x17a0 <__vector_11+0x76>
    17f6:	cd cf       	rjmp	.-102    	; 0x1792 <__vector_11+0x68>
			len = (wLength < 256) ? wLength : 255;
			if (len > desc_length) len = desc_length;
			do {
				// wait for host ready for IN packet
				do {
					i = UEINTX;
    17f8:	c8 ee       	ldi	r28, 0xE8	; 232
    17fa:	d0 e0       	ldi	r29, 0x00	; 0
{
	while (!(UEINTX & (1<<TXINI))) ;
}
static inline void usb_send_in(void)
{
	UEINTX = ~(1<<TXINI);
    17fc:	7e ef       	ldi	r23, 0xFE	; 254
				} while (!(i & ((1<<TXINI)|(1<<RXOUTI))));
				if (i & (1<<RXOUTI)) return;	// abort
				// send IN packet
				n = len < ENDPOINT0_SIZE ? len : ENDPOINT0_SIZE;
				for (i = n; i; i--) {
					UEDATX = pgm_read_byte(desc_addr++);
    17fe:	a1 ef       	ldi	r26, 0xF1	; 241
    1800:	b0 e0       	ldi	r27, 0x00	; 0
				do {
					i = UEINTX;
				} while (!(i & ((1<<TXINI)|(1<<RXOUTI))));
				if (i & (1<<RXOUTI)) return;	// abort
				// send IN packet
				n = len < ENDPOINT0_SIZE ? len : ENDPOINT0_SIZE;
    1802:	10 e1       	ldi	r17, 0x10	; 16
			len = (wLength < 256) ? wLength : 255;
			if (len > desc_length) len = desc_length;
			do {
				// wait for host ready for IN packet
				do {
					i = UEINTX;
    1804:	88 81       	ld	r24, Y
				} while (!(i & ((1<<TXINI)|(1<<RXOUTI))));
    1806:	98 2f       	mov	r25, r24
    1808:	95 70       	andi	r25, 0x05	; 5
    180a:	e1 f3       	breq	.-8      	; 0x1804 <__vector_11+0xda>
				if (i & (1<<RXOUTI)) return;	// abort
    180c:	82 fd       	sbrc	r24, 2
    180e:	00 c1       	rjmp	.+512    	; 0x1a10 <__vector_11+0x2e6>
				// send IN packet
				n = len < ENDPOINT0_SIZE ? len : ENDPOINT0_SIZE;
    1810:	64 2f       	mov	r22, r20
    1812:	41 31       	cpi	r20, 0x11	; 17
    1814:	08 f0       	brcs	.+2      	; 0x1818 <__vector_11+0xee>
    1816:	61 2f       	mov	r22, r17
				for (i = n; i; i--) {
    1818:	66 23       	and	r22, r22
    181a:	09 f4       	brne	.+2      	; 0x181e <__vector_11+0xf4>
    181c:	f6 c0       	rjmp	.+492    	; 0x1a0a <__vector_11+0x2e0>
    181e:	c9 01       	movw	r24, r18
    1820:	56 2f       	mov	r21, r22
					UEDATX = pgm_read_byte(desc_addr++);
    1822:	fc 01       	movw	r30, r24
    1824:	01 96       	adiw	r24, 0x01	; 1
    1826:	e4 91       	lpm	r30, Z
    1828:	ec 93       	st	X, r30
					i = UEINTX;
				} while (!(i & ((1<<TXINI)|(1<<RXOUTI))));
				if (i & (1<<RXOUTI)) return;	// abort
				// send IN packet
				n = len < ENDPOINT0_SIZE ? len : ENDPOINT0_SIZE;
				for (i = n; i; i--) {
    182a:	51 50       	subi	r21, 0x01	; 1
    182c:	d1 f7       	brne	.-12     	; 0x1822 <__vector_11+0xf8>

// USB Endpoint Interrupt - endpoint 0 is handled here.  The
// other endpoints are manipulated by the user-callable
// functions, and the start-of-frame interrupt.
//
ISR(USB_COM_vect)
    182e:	86 2f       	mov	r24, r22
    1830:	81 50       	subi	r24, 0x01	; 1
    1832:	90 e0       	ldi	r25, 0x00	; 0
    1834:	01 96       	adiw	r24, 0x01	; 1
    1836:	28 0f       	add	r18, r24
    1838:	39 1f       	adc	r19, r25
				// send IN packet
				n = len < ENDPOINT0_SIZE ? len : ENDPOINT0_SIZE;
				for (i = n; i; i--) {
					UEDATX = pgm_read_byte(desc_addr++);
				}
				len -= n;
    183a:	46 1b       	sub	r20, r22
{
	while (!(UEINTX & (1<<TXINI))) ;
}
static inline void usb_send_in(void)
{
	UEINTX = ~(1<<TXINI);
    183c:	78 83       	st	Y, r23
				for (i = n; i; i--) {
					UEDATX = pgm_read_byte(desc_addr++);
				}
				len -= n;
				usb_send_in();
			} while (len || n == ENDPOINT0_SIZE);
    183e:	41 11       	cpse	r20, r1
    1840:	e1 cf       	rjmp	.-62     	; 0x1804 <__vector_11+0xda>
    1842:	60 31       	cpi	r22, 0x10	; 16
    1844:	f9 f2       	breq	.-66     	; 0x1804 <__vector_11+0xda>
    1846:	e4 c0       	rjmp	.+456    	; 0x1a10 <__vector_11+0x2e6>
			return;
                }
		if (bRequest == SET_ADDRESS) {
    1848:	45 30       	cpi	r20, 0x05	; 5
    184a:	61 f4       	brne	.+24     	; 0x1864 <__vector_11+0x13a>
{
	while (!(UEINTX & (1<<TXINI))) ;
}
static inline void usb_send_in(void)
{
	UEINTX = ~(1<<TXINI);
    184c:	8e ef       	ldi	r24, 0xFE	; 254
    184e:	80 93 e8 00 	sts	0x00E8, r24


// Misc functions to wait for ready and send/receive packets
static inline void usb_wait_in_ready(void)
{
	while (!(UEINTX & (1<<TXINI))) ;
    1852:	e8 ee       	ldi	r30, 0xE8	; 232
    1854:	f0 e0       	ldi	r31, 0x00	; 0
    1856:	80 81       	ld	r24, Z
    1858:	80 ff       	sbrs	r24, 0
    185a:	fd cf       	rjmp	.-6      	; 0x1856 <__vector_11+0x12c>
			return;
                }
		if (bRequest == SET_ADDRESS) {
			usb_send_in();
			usb_wait_in_ready();
			UDADDR = wValue | (1<<ADDEN);
    185c:	20 68       	ori	r18, 0x80	; 128
    185e:	20 93 e3 00 	sts	0x00E3, r18
			return;
    1862:	d6 c0       	rjmp	.+428    	; 0x1a10 <__vector_11+0x2e6>
		}
		if (bRequest == SET_CONFIGURATION && bmRequestType == 0) {
    1864:	49 30       	cpi	r20, 0x09	; 9
    1866:	a1 f5       	brne	.+104    	; 0x18d0 <__vector_11+0x1a6>
    1868:	71 11       	cpse	r23, r1
    186a:	5b c0       	rjmp	.+182    	; 0x1922 <__vector_11+0x1f8>
			usb_configuration = wValue;
    186c:	20 93 01 06 	sts	0x0601, r18
			cdc_line_rtsdtr = 0;
    1870:	10 92 02 06 	sts	0x0602, r1
			transmit_flush_timer = 0;
    1874:	10 92 00 06 	sts	0x0600, r1
{
	while (!(UEINTX & (1<<TXINI))) ;
}
static inline void usb_send_in(void)
{
	UEINTX = ~(1<<TXINI);
    1878:	8e ef       	ldi	r24, 0xFE	; 254
    187a:	80 93 e8 00 	sts	0x00E8, r24
			usb_configuration = wValue;
			cdc_line_rtsdtr = 0;
			transmit_flush_timer = 0;
			usb_send_in();
			cfg = endpoint_config_table;
			for (i=1; i<5; i++) {
    187e:	11 e0       	ldi	r17, 0x01	; 1
		if (bRequest == SET_CONFIGURATION && bmRequestType == 0) {
			usb_configuration = wValue;
			cdc_line_rtsdtr = 0;
			transmit_flush_timer = 0;
			usb_send_in();
			cfg = endpoint_config_table;
    1880:	80 e6       	ldi	r24, 0x60	; 96
    1882:	92 e0       	ldi	r25, 0x02	; 2
			for (i=1; i<5; i++) {
				UENUM = i;
    1884:	c9 ee       	ldi	r28, 0xE9	; 233
    1886:	d0 e0       	ldi	r29, 0x00	; 0
				en = pgm_read_byte(cfg++);
				UECONX = en;
    1888:	ab ee       	ldi	r26, 0xEB	; 235
    188a:	b0 e0       	ldi	r27, 0x00	; 0
				if (en) {
					UECFG0X = pgm_read_byte(cfg++);
    188c:	6c ee       	ldi	r22, 0xEC	; 236
    188e:	70 e0       	ldi	r23, 0x00	; 0
					UECFG1X = pgm_read_byte(cfg++);
    1890:	4d ee       	ldi	r20, 0xED	; 237
    1892:	50 e0       	ldi	r21, 0x00	; 0
			cdc_line_rtsdtr = 0;
			transmit_flush_timer = 0;
			usb_send_in();
			cfg = endpoint_config_table;
			for (i=1; i<5; i++) {
				UENUM = i;
    1894:	18 83       	st	Y, r17
				en = pgm_read_byte(cfg++);
    1896:	9c 01       	movw	r18, r24
    1898:	2f 5f       	subi	r18, 0xFF	; 255
    189a:	3f 4f       	sbci	r19, 0xFF	; 255
    189c:	fc 01       	movw	r30, r24
    189e:	04 91       	lpm	r16, Z
				UECONX = en;
    18a0:	0c 93       	st	X, r16
				if (en) {
    18a2:	00 23       	and	r16, r16
    18a4:	59 f0       	breq	.+22     	; 0x18bc <__vector_11+0x192>
					UECFG0X = pgm_read_byte(cfg++);
    18a6:	f9 01       	movw	r30, r18
    18a8:	24 91       	lpm	r18, Z
    18aa:	fb 01       	movw	r30, r22
    18ac:	20 83       	st	Z, r18
    18ae:	fc 01       	movw	r30, r24
    18b0:	32 96       	adiw	r30, 0x02	; 2
					UECFG1X = pgm_read_byte(cfg++);
    18b2:	03 96       	adiw	r24, 0x03	; 3
    18b4:	24 91       	lpm	r18, Z
    18b6:	fa 01       	movw	r30, r20
    18b8:	20 83       	st	Z, r18
    18ba:	01 c0       	rjmp	.+2      	; 0x18be <__vector_11+0x194>
			transmit_flush_timer = 0;
			usb_send_in();
			cfg = endpoint_config_table;
			for (i=1; i<5; i++) {
				UENUM = i;
				en = pgm_read_byte(cfg++);
    18bc:	c9 01       	movw	r24, r18
			usb_configuration = wValue;
			cdc_line_rtsdtr = 0;
			transmit_flush_timer = 0;
			usb_send_in();
			cfg = endpoint_config_table;
			for (i=1; i<5; i++) {
    18be:	1f 5f       	subi	r17, 0xFF	; 255
    18c0:	15 30       	cpi	r17, 0x05	; 5
    18c2:	41 f7       	brne	.-48     	; 0x1894 <__vector_11+0x16a>
				if (en) {
					UECFG0X = pgm_read_byte(cfg++);
					UECFG1X = pgm_read_byte(cfg++);
				}
			}
        		UERST = 0x1E;
    18c4:	ea ee       	ldi	r30, 0xEA	; 234
    18c6:	f0 e0       	ldi	r31, 0x00	; 0
    18c8:	8e e1       	ldi	r24, 0x1E	; 30
    18ca:	80 83       	st	Z, r24
        		UERST = 0;
    18cc:	10 82       	st	Z, r1
			return;
    18ce:	a0 c0       	rjmp	.+320    	; 0x1a10 <__vector_11+0x2e6>
		}
		if (bRequest == GET_CONFIGURATION && bmRequestType == 0x80) {
    18d0:	48 30       	cpi	r20, 0x08	; 8
    18d2:	81 f4       	brne	.+32     	; 0x18f4 <__vector_11+0x1ca>
    18d4:	70 38       	cpi	r23, 0x80	; 128
    18d6:	09 f0       	breq	.+2      	; 0x18da <__vector_11+0x1b0>
    18d8:	3f c0       	rjmp	.+126    	; 0x1958 <__vector_11+0x22e>


// Misc functions to wait for ready and send/receive packets
static inline void usb_wait_in_ready(void)
{
	while (!(UEINTX & (1<<TXINI))) ;
    18da:	e8 ee       	ldi	r30, 0xE8	; 232
    18dc:	f0 e0       	ldi	r31, 0x00	; 0
    18de:	80 81       	ld	r24, Z
    18e0:	80 ff       	sbrs	r24, 0
    18e2:	fd cf       	rjmp	.-6      	; 0x18de <__vector_11+0x1b4>
        		UERST = 0;
			return;
		}
		if (bRequest == GET_CONFIGURATION && bmRequestType == 0x80) {
			usb_wait_in_ready();
			UEDATX = usb_configuration;
    18e4:	80 91 01 06 	lds	r24, 0x0601
    18e8:	80 93 f1 00 	sts	0x00F1, r24
{
	while (!(UEINTX & (1<<TXINI))) ;
}
static inline void usb_send_in(void)
{
	UEINTX = ~(1<<TXINI);
    18ec:	8e ef       	ldi	r24, 0xFE	; 254
    18ee:	80 93 e8 00 	sts	0x00E8, r24
    18f2:	8e c0       	rjmp	.+284    	; 0x1a10 <__vector_11+0x2e6>
			usb_wait_in_ready();
			UEDATX = usb_configuration;
			usb_send_in();
			return;
		}
		if (bRequest == CDC_GET_LINE_CODING && bmRequestType == 0xA1) {
    18f4:	41 32       	cpi	r20, 0x21	; 33
    18f6:	a9 f4       	brne	.+42     	; 0x1922 <__vector_11+0x1f8>
    18f8:	71 3a       	cpi	r23, 0xA1	; 161
    18fa:	f1 f5       	brne	.+124    	; 0x1978 <__vector_11+0x24e>


// Misc functions to wait for ready and send/receive packets
static inline void usb_wait_in_ready(void)
{
	while (!(UEINTX & (1<<TXINI))) ;
    18fc:	e8 ee       	ldi	r30, 0xE8	; 232
    18fe:	f0 e0       	ldi	r31, 0x00	; 0
    1900:	80 81       	ld	r24, Z
    1902:	80 ff       	sbrs	r24, 0
    1904:	fd cf       	rjmp	.-6      	; 0x1900 <__vector_11+0x1d6>
    1906:	e3 e0       	ldi	r30, 0x03	; 3
    1908:	f1 e0       	ldi	r31, 0x01	; 1
		}
		if (bRequest == CDC_GET_LINE_CODING && bmRequestType == 0xA1) {
			usb_wait_in_ready();
			p = cdc_line_coding;
			for (i=0; i<7; i++) {
				UEDATX = *p++;
    190a:	a1 ef       	ldi	r26, 0xF1	; 241
    190c:	b0 e0       	ldi	r27, 0x00	; 0
    190e:	81 91       	ld	r24, Z+
    1910:	8c 93       	st	X, r24
			return;
		}
		if (bRequest == CDC_GET_LINE_CODING && bmRequestType == 0xA1) {
			usb_wait_in_ready();
			p = cdc_line_coding;
			for (i=0; i<7; i++) {
    1912:	41 e0       	ldi	r20, 0x01	; 1
    1914:	ea 30       	cpi	r30, 0x0A	; 10
    1916:	f4 07       	cpc	r31, r20
    1918:	d1 f7       	brne	.-12     	; 0x190e <__vector_11+0x1e4>
{
	while (!(UEINTX & (1<<TXINI))) ;
}
static inline void usb_send_in(void)
{
	UEINTX = ~(1<<TXINI);
    191a:	8e ef       	ldi	r24, 0xFE	; 254
    191c:	80 93 e8 00 	sts	0x00E8, r24
    1920:	77 c0       	rjmp	.+238    	; 0x1a10 <__vector_11+0x2e6>
				UEDATX = *p++;
			}
			usb_send_in();
			return;
		}
		if (bRequest == CDC_SET_LINE_CODING && bmRequestType == 0x21) {
    1922:	40 32       	cpi	r20, 0x20	; 32
    1924:	c9 f4       	brne	.+50     	; 0x1958 <__vector_11+0x22e>
    1926:	71 32       	cpi	r23, 0x21	; 33
    1928:	09 f0       	breq	.+2      	; 0x192c <__vector_11+0x202>
    192a:	6b c0       	rjmp	.+214    	; 0x1a02 <__vector_11+0x2d8>
{
	UEINTX = ~(1<<TXINI);
}
static inline void usb_wait_receive_out(void)
{
	while (!(UEINTX & (1<<RXOUTI))) ;
    192c:	e8 ee       	ldi	r30, 0xE8	; 232
    192e:	f0 e0       	ldi	r31, 0x00	; 0
    1930:	80 81       	ld	r24, Z
    1932:	82 ff       	sbrs	r24, 2
    1934:	fd cf       	rjmp	.-6      	; 0x1930 <__vector_11+0x206>
    1936:	e3 e0       	ldi	r30, 0x03	; 3
    1938:	f1 e0       	ldi	r31, 0x01	; 1
		}
		if (bRequest == CDC_SET_LINE_CODING && bmRequestType == 0x21) {
			usb_wait_receive_out();
			p = cdc_line_coding;
			for (i=0; i<7; i++) {
				*p++ = UEDATX;
    193a:	a1 ef       	ldi	r26, 0xF1	; 241
    193c:	b0 e0       	ldi	r27, 0x00	; 0
    193e:	8c 91       	ld	r24, X
    1940:	81 93       	st	Z+, r24
			return;
		}
		if (bRequest == CDC_SET_LINE_CODING && bmRequestType == 0x21) {
			usb_wait_receive_out();
			p = cdc_line_coding;
			for (i=0; i<7; i++) {
    1942:	51 e0       	ldi	r21, 0x01	; 1
    1944:	ea 30       	cpi	r30, 0x0A	; 10
    1946:	f5 07       	cpc	r31, r21
    1948:	d1 f7       	brne	.-12     	; 0x193e <__vector_11+0x214>
{
	while (!(UEINTX & (1<<RXOUTI))) ;
}
static inline void usb_ack_out(void)
{
	UEINTX = ~(1<<RXOUTI);
    194a:	e8 ee       	ldi	r30, 0xE8	; 232
    194c:	f0 e0       	ldi	r31, 0x00	; 0
    194e:	8b ef       	ldi	r24, 0xFB	; 251
    1950:	80 83       	st	Z, r24
{
	while (!(UEINTX & (1<<TXINI))) ;
}
static inline void usb_send_in(void)
{
	UEINTX = ~(1<<TXINI);
    1952:	8e ef       	ldi	r24, 0xFE	; 254
    1954:	80 83       	st	Z, r24
    1956:	5c c0       	rjmp	.+184    	; 0x1a10 <__vector_11+0x2e6>
			}
			usb_ack_out();
			usb_send_in();
			return;
		}
		if (bRequest == CDC_SET_CONTROL_LINE_STATE && bmRequestType == 0x21) {
    1958:	42 32       	cpi	r20, 0x22	; 34
    195a:	71 f4       	brne	.+28     	; 0x1978 <__vector_11+0x24e>
    195c:	71 32       	cpi	r23, 0x21	; 33
    195e:	09 f0       	breq	.+2      	; 0x1962 <__vector_11+0x238>
    1960:	50 c0       	rjmp	.+160    	; 0x1a02 <__vector_11+0x2d8>
			cdc_line_rtsdtr = wValue;
    1962:	20 93 02 06 	sts	0x0602, r18


// Misc functions to wait for ready and send/receive packets
static inline void usb_wait_in_ready(void)
{
	while (!(UEINTX & (1<<TXINI))) ;
    1966:	e8 ee       	ldi	r30, 0xE8	; 232
    1968:	f0 e0       	ldi	r31, 0x00	; 0
    196a:	80 81       	ld	r24, Z
    196c:	80 ff       	sbrs	r24, 0
    196e:	fd cf       	rjmp	.-6      	; 0x196a <__vector_11+0x240>
}
static inline void usb_send_in(void)
{
	UEINTX = ~(1<<TXINI);
    1970:	8e ef       	ldi	r24, 0xFE	; 254
    1972:	80 93 e8 00 	sts	0x00E8, r24
    1976:	4c c0       	rjmp	.+152    	; 0x1a10 <__vector_11+0x2e6>
			cdc_line_rtsdtr = wValue;
			usb_wait_in_ready();
			usb_send_in();
			return;
		}
		if (bRequest == GET_STATUS) {
    1978:	41 11       	cpse	r20, r1
    197a:	1a c0       	rjmp	.+52     	; 0x19b0 <__vector_11+0x286>


// Misc functions to wait for ready and send/receive packets
static inline void usb_wait_in_ready(void)
{
	while (!(UEINTX & (1<<TXINI))) ;
    197c:	e8 ee       	ldi	r30, 0xE8	; 232
    197e:	f0 e0       	ldi	r31, 0x00	; 0
    1980:	20 81       	ld	r18, Z
    1982:	20 ff       	sbrs	r18, 0
    1984:	fd cf       	rjmp	.-6      	; 0x1980 <__vector_11+0x256>
		}
		if (bRequest == GET_STATUS) {
			usb_wait_in_ready();
			i = 0;
			#ifdef SUPPORT_ENDPOINT_HALT
			if (bmRequestType == 0x82) {
    1986:	72 38       	cpi	r23, 0x82	; 130
    1988:	51 f4       	brne	.+20     	; 0x199e <__vector_11+0x274>
				UENUM = wIndex;
    198a:	e9 ee       	ldi	r30, 0xE9	; 233
    198c:	f0 e0       	ldi	r31, 0x00	; 0
    198e:	80 83       	st	Z, r24
				if (UECONX & (1<<STALLRQ)) i = 1;
    1990:	80 91 eb 00 	lds	r24, 0x00EB
    1994:	85 fb       	bst	r24, 5
    1996:	88 27       	eor	r24, r24
    1998:	80 f9       	bld	r24, 0
				UENUM = 0;
    199a:	10 82       	st	Z, r1
    199c:	01 c0       	rjmp	.+2      	; 0x19a0 <__vector_11+0x276>
			usb_send_in();
			return;
		}
		if (bRequest == GET_STATUS) {
			usb_wait_in_ready();
			i = 0;
    199e:	80 e0       	ldi	r24, 0x00	; 0
				UENUM = wIndex;
				if (UECONX & (1<<STALLRQ)) i = 1;
				UENUM = 0;
			}
			#endif
			UEDATX = i;
    19a0:	e1 ef       	ldi	r30, 0xF1	; 241
    19a2:	f0 e0       	ldi	r31, 0x00	; 0
    19a4:	80 83       	st	Z, r24
			UEDATX = 0;
    19a6:	10 82       	st	Z, r1
{
	while (!(UEINTX & (1<<TXINI))) ;
}
static inline void usb_send_in(void)
{
	UEINTX = ~(1<<TXINI);
    19a8:	8e ef       	ldi	r24, 0xFE	; 254
    19aa:	80 93 e8 00 	sts	0x00E8, r24
    19ae:	30 c0       	rjmp	.+96     	; 0x1a10 <__vector_11+0x2e6>
			UEDATX = 0;
			usb_send_in();
			return;
		}
		#ifdef SUPPORT_ENDPOINT_HALT
		if ((bRequest == CLEAR_FEATURE || bRequest == SET_FEATURE)
    19b0:	41 30       	cpi	r20, 0x01	; 1
    19b2:	11 f0       	breq	.+4      	; 0x19b8 <__vector_11+0x28e>
    19b4:	43 30       	cpi	r20, 0x03	; 3
    19b6:	29 f5       	brne	.+74     	; 0x1a02 <__vector_11+0x2d8>
		  && bmRequestType == 0x02 && wValue == 0) {
    19b8:	72 30       	cpi	r23, 0x02	; 2
    19ba:	19 f5       	brne	.+70     	; 0x1a02 <__vector_11+0x2d8>
    19bc:	23 2b       	or	r18, r19
    19be:	09 f5       	brne	.+66     	; 0x1a02 <__vector_11+0x2d8>
			i = wIndex & 0x7F;
    19c0:	8f 77       	andi	r24, 0x7F	; 127
    19c2:	99 27       	eor	r25, r25
			if (i >= 1 && i <= MAX_ENDPOINT) {
    19c4:	38 2f       	mov	r19, r24
    19c6:	31 50       	subi	r19, 0x01	; 1
    19c8:	34 30       	cpi	r19, 0x04	; 4
    19ca:	d8 f4       	brcc	.+54     	; 0x1a02 <__vector_11+0x2d8>
{
	while (!(UEINTX & (1<<TXINI))) ;
}
static inline void usb_send_in(void)
{
	UEINTX = ~(1<<TXINI);
    19cc:	3e ef       	ldi	r19, 0xFE	; 254
    19ce:	30 93 e8 00 	sts	0x00E8, r19
		if ((bRequest == CLEAR_FEATURE || bRequest == SET_FEATURE)
		  && bmRequestType == 0x02 && wValue == 0) {
			i = wIndex & 0x7F;
			if (i >= 1 && i <= MAX_ENDPOINT) {
				usb_send_in();
				UENUM = i;
    19d2:	80 93 e9 00 	sts	0x00E9, r24
				if (bRequest == SET_FEATURE) {
    19d6:	43 30       	cpi	r20, 0x03	; 3
    19d8:	21 f4       	brne	.+8      	; 0x19e2 <__vector_11+0x2b8>
					UECONX = (1<<STALLRQ)|(1<<EPEN);
    19da:	81 e2       	ldi	r24, 0x21	; 33
    19dc:	80 93 eb 00 	sts	0x00EB, r24
    19e0:	17 c0       	rjmp	.+46     	; 0x1a10 <__vector_11+0x2e6>
				} else {
					UECONX = (1<<STALLRQC)|(1<<RSTDT)|(1<<EPEN);
    19e2:	99 e1       	ldi	r25, 0x19	; 25
    19e4:	90 93 eb 00 	sts	0x00EB, r25
					UERST = (1 << i);
    19e8:	21 e0       	ldi	r18, 0x01	; 1
    19ea:	30 e0       	ldi	r19, 0x00	; 0
    19ec:	d9 01       	movw	r26, r18
    19ee:	02 c0       	rjmp	.+4      	; 0x19f4 <__vector_11+0x2ca>
    19f0:	aa 0f       	add	r26, r26
    19f2:	bb 1f       	adc	r27, r27
    19f4:	8a 95       	dec	r24
    19f6:	e2 f7       	brpl	.-8      	; 0x19f0 <__vector_11+0x2c6>
    19f8:	ea ee       	ldi	r30, 0xEA	; 234
    19fa:	f0 e0       	ldi	r31, 0x00	; 0
    19fc:	a0 83       	st	Z, r26
					UERST = 0;
    19fe:	10 82       	st	Z, r1
    1a00:	07 c0       	rjmp	.+14     	; 0x1a10 <__vector_11+0x2e6>
				return;
			}
		}
		#endif
        }
	UECONX = (1<<STALLRQ) | (1<<EPEN);	// stall
    1a02:	81 e2       	ldi	r24, 0x21	; 33
    1a04:	80 93 eb 00 	sts	0x00EB, r24
    1a08:	03 c0       	rjmp	.+6      	; 0x1a10 <__vector_11+0x2e6>
{
	while (!(UEINTX & (1<<TXINI))) ;
}
static inline void usb_send_in(void)
{
	UEINTX = ~(1<<TXINI);
    1a0a:	78 83       	st	Y, r23
				for (i = n; i; i--) {
					UEDATX = pgm_read_byte(desc_addr++);
				}
				len -= n;
				usb_send_in();
			} while (len || n == ENDPOINT0_SIZE);
    1a0c:	41 11       	cpse	r20, r1
    1a0e:	fa ce       	rjmp	.-524    	; 0x1804 <__vector_11+0xda>
			}
		}
		#endif
        }
	UECONX = (1<<STALLRQ) | (1<<EPEN);	// stall
}
    1a10:	ff 91       	pop	r31
    1a12:	ef 91       	pop	r30
    1a14:	df 91       	pop	r29
    1a16:	cf 91       	pop	r28
    1a18:	bf 91       	pop	r27
    1a1a:	af 91       	pop	r26
    1a1c:	9f 91       	pop	r25
    1a1e:	8f 91       	pop	r24
    1a20:	7f 91       	pop	r23
    1a22:	6f 91       	pop	r22
    1a24:	5f 91       	pop	r21
    1a26:	4f 91       	pop	r20
    1a28:	3f 91       	pop	r19
    1a2a:	2f 91       	pop	r18
    1a2c:	1f 91       	pop	r17
    1a2e:	0f 91       	pop	r16
    1a30:	0f 90       	pop	r0
    1a32:	0f be       	out	0x3f, r0	; 63
    1a34:	0f 90       	pop	r0
    1a36:	1f 90       	pop	r1
    1a38:	18 95       	reti

00001a3a <usb_send_str>:
//																												   //
/////////////////////////////////////////////////////////////////////////////////////////////////////////////////////

// Send a string to the USB serial port. -works 
void usb_send_str( char *str)
{
    1a3a:	cf 93       	push	r28
    1a3c:	df 93       	push	r29
	char c;
	while (1) {
		c = *str++;
    1a3e:	ec 01       	movw	r28, r24
    1a40:	89 91       	ld	r24, Y+
		if (!c) break;
    1a42:	88 23       	and	r24, r24
    1a44:	29 f0       	breq	.+10     	; 0x1a50 <usb_send_str+0x16>
		usb_serial_putchar(c);
    1a46:	0e 94 fb 0a 	call	0x15f6	; 0x15f6 <usb_serial_putchar>
// Send a string to the USB serial port. -works 
void usb_send_str( char *str)
{
	char c;
	while (1) {
		c = *str++;
    1a4a:	89 91       	ld	r24, Y+
		if (!c) break;
    1a4c:	81 11       	cpse	r24, r1
    1a4e:	fb cf       	rjmp	.-10     	; 0x1a46 <usb_send_str+0xc>
		usb_serial_putchar(c);
	}
}
    1a50:	df 91       	pop	r29
    1a52:	cf 91       	pop	r28
    1a54:	08 95       	ret

00001a56 <usb_send_int>:
// Send a int to the USB serial port. -works 
void usb_send_int(const uint32_t c){
    1a56:	cf 93       	push	r28
    1a58:	df 93       	push	r29
    1a5a:	cd b7       	in	r28, 0x3d	; 61
    1a5c:	de b7       	in	r29, 0x3e	; 62
    1a5e:	64 97       	sbiw	r28, 0x14	; 20
    1a60:	0f b6       	in	r0, 0x3f	; 63
    1a62:	f8 94       	cli
    1a64:	de bf       	out	0x3e, r29	; 62
    1a66:	0f be       	out	0x3f, r0	; 63
    1a68:	cd bf       	out	0x3d, r28	; 61
	 char buffer[20];
	ltoa(c,buffer,10);
    1a6a:	2a e0       	ldi	r18, 0x0A	; 10
    1a6c:	30 e0       	ldi	r19, 0x00	; 0
    1a6e:	ae 01       	movw	r20, r28
    1a70:	4f 5f       	subi	r20, 0xFF	; 255
    1a72:	5f 4f       	sbci	r21, 0xFF	; 255
    1a74:	0e 94 bd 0d 	call	0x1b7a	; 0x1b7a <ltoa>
	//utoa(c,buffer,10);
	usb_send_str((char*)buffer);
    1a78:	ce 01       	movw	r24, r28
    1a7a:	01 96       	adiw	r24, 0x01	; 1
    1a7c:	0e 94 1d 0d 	call	0x1a3a	; 0x1a3a <usb_send_str>
}
    1a80:	64 96       	adiw	r28, 0x14	; 20
    1a82:	0f b6       	in	r0, 0x3f	; 63
    1a84:	f8 94       	cli
    1a86:	de bf       	out	0x3e, r29	; 62
    1a88:	0f be       	out	0x3f, r0	; 63
    1a8a:	cd bf       	out	0x3d, r28	; 61
    1a8c:	df 91       	pop	r29
    1a8e:	cf 91       	pop	r28
    1a90:	08 95       	ret

00001a92 <__udivmodsi4>:
    1a92:	a1 e2       	ldi	r26, 0x21	; 33
    1a94:	1a 2e       	mov	r1, r26
    1a96:	aa 1b       	sub	r26, r26
    1a98:	bb 1b       	sub	r27, r27
    1a9a:	fd 01       	movw	r30, r26
    1a9c:	0d c0       	rjmp	.+26     	; 0x1ab8 <__udivmodsi4_ep>

00001a9e <__udivmodsi4_loop>:
    1a9e:	aa 1f       	adc	r26, r26
    1aa0:	bb 1f       	adc	r27, r27
    1aa2:	ee 1f       	adc	r30, r30
    1aa4:	ff 1f       	adc	r31, r31
    1aa6:	a2 17       	cp	r26, r18
    1aa8:	b3 07       	cpc	r27, r19
    1aaa:	e4 07       	cpc	r30, r20
    1aac:	f5 07       	cpc	r31, r21
    1aae:	20 f0       	brcs	.+8      	; 0x1ab8 <__udivmodsi4_ep>
    1ab0:	a2 1b       	sub	r26, r18
    1ab2:	b3 0b       	sbc	r27, r19
    1ab4:	e4 0b       	sbc	r30, r20
    1ab6:	f5 0b       	sbc	r31, r21

00001ab8 <__udivmodsi4_ep>:
    1ab8:	66 1f       	adc	r22, r22
    1aba:	77 1f       	adc	r23, r23
    1abc:	88 1f       	adc	r24, r24
    1abe:	99 1f       	adc	r25, r25
    1ac0:	1a 94       	dec	r1
    1ac2:	69 f7       	brne	.-38     	; 0x1a9e <__udivmodsi4_loop>
    1ac4:	60 95       	com	r22
    1ac6:	70 95       	com	r23
    1ac8:	80 95       	com	r24
    1aca:	90 95       	com	r25
    1acc:	9b 01       	movw	r18, r22
    1ace:	ac 01       	movw	r20, r24
    1ad0:	bd 01       	movw	r22, r26
    1ad2:	cf 01       	movw	r24, r30
    1ad4:	08 95       	ret

00001ad6 <__tablejump2__>:
    1ad6:	ee 0f       	add	r30, r30
    1ad8:	ff 1f       	adc	r31, r31

00001ada <__tablejump__>:
    1ada:	05 90       	lpm	r0, Z+
    1adc:	f4 91       	lpm	r31, Z
    1ade:	e0 2d       	mov	r30, r0
    1ae0:	09 94       	ijmp

00001ae2 <__muluhisi3>:
    1ae2:	0e 94 7c 0d 	call	0x1af8	; 0x1af8 <__umulhisi3>
    1ae6:	a5 9f       	mul	r26, r21
    1ae8:	90 0d       	add	r25, r0
    1aea:	b4 9f       	mul	r27, r20
    1aec:	90 0d       	add	r25, r0
    1aee:	a4 9f       	mul	r26, r20
    1af0:	80 0d       	add	r24, r0
    1af2:	91 1d       	adc	r25, r1
    1af4:	11 24       	eor	r1, r1
    1af6:	08 95       	ret

00001af8 <__umulhisi3>:
    1af8:	a2 9f       	mul	r26, r18
    1afa:	b0 01       	movw	r22, r0
    1afc:	b3 9f       	mul	r27, r19
    1afe:	c0 01       	movw	r24, r0
    1b00:	a3 9f       	mul	r26, r19
    1b02:	01 d0       	rcall	.+2      	; 0x1b06 <__umulhisi3+0xe>
    1b04:	b2 9f       	mul	r27, r18
    1b06:	70 0d       	add	r23, r0
    1b08:	81 1d       	adc	r24, r1
    1b0a:	11 24       	eor	r1, r1
    1b0c:	91 1d       	adc	r25, r1
    1b0e:	08 95       	ret

00001b10 <atol>:
    1b10:	1f 93       	push	r17
    1b12:	fc 01       	movw	r30, r24
    1b14:	99 27       	eor	r25, r25
    1b16:	88 27       	eor	r24, r24
    1b18:	bc 01       	movw	r22, r24
    1b1a:	e8 94       	clt
    1b1c:	11 91       	ld	r17, Z+
    1b1e:	10 32       	cpi	r17, 0x20	; 32
    1b20:	e9 f3       	breq	.-6      	; 0x1b1c <atol+0xc>
    1b22:	19 30       	cpi	r17, 0x09	; 9
    1b24:	10 f0       	brcs	.+4      	; 0x1b2a <atol+0x1a>
    1b26:	1e 30       	cpi	r17, 0x0E	; 14
    1b28:	c8 f3       	brcs	.-14     	; 0x1b1c <atol+0xc>
    1b2a:	1b 32       	cpi	r17, 0x2B	; 43
    1b2c:	51 f0       	breq	.+20     	; 0x1b42 <atol+0x32>
    1b2e:	1d 32       	cpi	r17, 0x2D	; 45
    1b30:	49 f4       	brne	.+18     	; 0x1b44 <atol+0x34>
    1b32:	68 94       	set
    1b34:	06 c0       	rjmp	.+12     	; 0x1b42 <atol+0x32>
    1b36:	0e 94 f1 0d 	call	0x1be2	; 0x1be2 <__mulsi_const_10>
    1b3a:	61 0f       	add	r22, r17
    1b3c:	71 1d       	adc	r23, r1
    1b3e:	81 1d       	adc	r24, r1
    1b40:	91 1d       	adc	r25, r1
    1b42:	11 91       	ld	r17, Z+
    1b44:	10 53       	subi	r17, 0x30	; 48
    1b46:	1a 30       	cpi	r17, 0x0A	; 10
    1b48:	b0 f3       	brcs	.-20     	; 0x1b36 <atol+0x26>
    1b4a:	3e f4       	brtc	.+14     	; 0x1b5a <atol+0x4a>
    1b4c:	90 95       	com	r25
    1b4e:	80 95       	com	r24
    1b50:	70 95       	com	r23
    1b52:	61 95       	neg	r22
    1b54:	7f 4f       	sbci	r23, 0xFF	; 255
    1b56:	8f 4f       	sbci	r24, 0xFF	; 255
    1b58:	9f 4f       	sbci	r25, 0xFF	; 255
    1b5a:	1f 91       	pop	r17
    1b5c:	08 95       	ret

00001b5e <strncmp>:
    1b5e:	fb 01       	movw	r30, r22
    1b60:	dc 01       	movw	r26, r24
    1b62:	41 50       	subi	r20, 0x01	; 1
    1b64:	50 40       	sbci	r21, 0x00	; 0
    1b66:	30 f0       	brcs	.+12     	; 0x1b74 <strncmp+0x16>
    1b68:	8d 91       	ld	r24, X+
    1b6a:	01 90       	ld	r0, Z+
    1b6c:	80 19       	sub	r24, r0
    1b6e:	19 f4       	brne	.+6      	; 0x1b76 <strncmp+0x18>
    1b70:	00 20       	and	r0, r0
    1b72:	b9 f7       	brne	.-18     	; 0x1b62 <strncmp+0x4>
    1b74:	88 1b       	sub	r24, r24
    1b76:	99 0b       	sbc	r25, r25
    1b78:	08 95       	ret

00001b7a <ltoa>:
    1b7a:	fa 01       	movw	r30, r20
    1b7c:	cf 93       	push	r28
    1b7e:	ff 93       	push	r31
    1b80:	ef 93       	push	r30
    1b82:	22 30       	cpi	r18, 0x02	; 2
    1b84:	44 f1       	brlt	.+80     	; 0x1bd6 <ltoa+0x5c>
    1b86:	25 32       	cpi	r18, 0x25	; 37
    1b88:	34 f5       	brge	.+76     	; 0x1bd6 <ltoa+0x5c>
    1b8a:	c2 2f       	mov	r28, r18
    1b8c:	e8 94       	clt
    1b8e:	ca 30       	cpi	r28, 0x0A	; 10
    1b90:	49 f4       	brne	.+18     	; 0x1ba4 <ltoa+0x2a>
    1b92:	97 fb       	bst	r25, 7
    1b94:	3e f4       	brtc	.+14     	; 0x1ba4 <ltoa+0x2a>
    1b96:	90 95       	com	r25
    1b98:	80 95       	com	r24
    1b9a:	70 95       	com	r23
    1b9c:	61 95       	neg	r22
    1b9e:	7f 4f       	sbci	r23, 0xFF	; 255
    1ba0:	8f 4f       	sbci	r24, 0xFF	; 255
    1ba2:	9f 4f       	sbci	r25, 0xFF	; 255
    1ba4:	2c 2f       	mov	r18, r28
    1ba6:	33 27       	eor	r19, r19
    1ba8:	44 27       	eor	r20, r20
    1baa:	55 27       	eor	r21, r21
    1bac:	ff 93       	push	r31
    1bae:	ef 93       	push	r30
    1bb0:	0e 94 49 0d 	call	0x1a92	; 0x1a92 <__udivmodsi4>
    1bb4:	ef 91       	pop	r30
    1bb6:	ff 91       	pop	r31
    1bb8:	60 5d       	subi	r22, 0xD0	; 208
    1bba:	6a 33       	cpi	r22, 0x3A	; 58
    1bbc:	0c f0       	brlt	.+2      	; 0x1bc0 <ltoa+0x46>
    1bbe:	69 5d       	subi	r22, 0xD9	; 217
    1bc0:	61 93       	st	Z+, r22
    1bc2:	b9 01       	movw	r22, r18
    1bc4:	ca 01       	movw	r24, r20
    1bc6:	60 50       	subi	r22, 0x00	; 0
    1bc8:	70 40       	sbci	r23, 0x00	; 0
    1bca:	80 40       	sbci	r24, 0x00	; 0
    1bcc:	90 40       	sbci	r25, 0x00	; 0
    1bce:	51 f7       	brne	.-44     	; 0x1ba4 <ltoa+0x2a>
    1bd0:	16 f4       	brtc	.+4      	; 0x1bd6 <ltoa+0x5c>
    1bd2:	cd e2       	ldi	r28, 0x2D	; 45
    1bd4:	c1 93       	st	Z+, r28
    1bd6:	10 82       	st	Z, r1
    1bd8:	8f 91       	pop	r24
    1bda:	9f 91       	pop	r25
    1bdc:	cf 91       	pop	r28
    1bde:	0c 94 06 0e 	jmp	0x1c0c	; 0x1c0c <strrev>

00001be2 <__mulsi_const_10>:
    1be2:	59 2f       	mov	r21, r25
    1be4:	48 2f       	mov	r20, r24
    1be6:	37 2f       	mov	r19, r23
    1be8:	26 2f       	mov	r18, r22
    1bea:	66 0f       	add	r22, r22
    1bec:	77 1f       	adc	r23, r23
    1bee:	88 1f       	adc	r24, r24
    1bf0:	99 1f       	adc	r25, r25
    1bf2:	66 0f       	add	r22, r22
    1bf4:	77 1f       	adc	r23, r23
    1bf6:	88 1f       	adc	r24, r24
    1bf8:	99 1f       	adc	r25, r25
    1bfa:	62 0f       	add	r22, r18
    1bfc:	73 1f       	adc	r23, r19
    1bfe:	84 1f       	adc	r24, r20
    1c00:	95 1f       	adc	r25, r21
    1c02:	66 0f       	add	r22, r22
    1c04:	77 1f       	adc	r23, r23
    1c06:	88 1f       	adc	r24, r24
    1c08:	99 1f       	adc	r25, r25
    1c0a:	08 95       	ret

00001c0c <strrev>:
    1c0c:	dc 01       	movw	r26, r24
    1c0e:	fc 01       	movw	r30, r24
    1c10:	67 2f       	mov	r22, r23
    1c12:	71 91       	ld	r23, Z+
    1c14:	77 23       	and	r23, r23
    1c16:	e1 f7       	brne	.-8      	; 0x1c10 <strrev+0x4>
    1c18:	32 97       	sbiw	r30, 0x02	; 2
    1c1a:	04 c0       	rjmp	.+8      	; 0x1c24 <strrev+0x18>
    1c1c:	7c 91       	ld	r23, X
    1c1e:	6d 93       	st	X+, r22
    1c20:	70 83       	st	Z, r23
    1c22:	62 91       	ld	r22, -Z
    1c24:	ae 17       	cp	r26, r30
    1c26:	bf 07       	cpc	r27, r31
    1c28:	c8 f3       	brcs	.-14     	; 0x1c1c <strrev+0x10>
    1c2a:	08 95       	ret

00001c2c <_exit>:
    1c2c:	f8 94       	cli

00001c2e <__stop_program>:
    1c2e:	ff cf       	rjmp	.-2      	; 0x1c2e <__stop_program>
